
========================================================================

** ELF Header Information

    File Name: __image.axf

    Machine class: ELFCLASS32 (32-bit)
    Data encoding: ELFDATA2LSB (Little endian)
    Header version: EV_CURRENT (Current version)
    File Type: ET_EXEC (Executable) (2)
    Machine: EM_ARM (ARM)

    Image Entry point: 0x00008000
    Flags: EF_ARM_HASENTRY + EF_ARM_SYMSARESORTED + EF_ARM_MAPSYMSFIRST (0x02000016)

    EABI conformance : ARM EABI Version 2.

    Built with
    Thumb C Compiler, ADS1.2 [Build 842]
    ARM/Thumb Macro Assembler vsn ADS1.2 [Build 837]
    ARM/Thumb Macro Assembler vsn ADS1.2 [Build 805]
    Thumb C Compiler, ADS1.2 [Build 837]
    ARM Linker, ADS1.2 [Build 842] 

    Header size: 52 bytes (0x34)
    Program header entry size: 32 bytes (0x20)
    Section header entry size: 40 bytes (0x28)

    Program header entries: 1
    Section header entries: 10

    Program header offset: 31868 (0x00007c7c)
    Section header offset: 31900 (0x00007c9c)

    Section header string table index: 9

========================================================================

** Program header #0 (PT_LOAD) [PF_X + PF_W + PF_R + PF_ARM_ENTRY]
    Size : 8196 bytes (7896 bytes in file)
    Virtual address: 0x00008000


========================================================================

** Section #1 'ER_RO' (SHT_PROGBITS) [SHF_ALLOC + SHF_EXECINSTR]
    Size   : 7888 bytes (alignment 4)
    Address: 0x00008000

    __main
    $a
    !!!
        0x00008000:    e28f80c4    ....    ADD      r8,pc,#0xc4 ; #0x80cc
        0x00008004:    e8980003    ....    LDMIA    r8,{r0,r1}
        0x00008008:    e0800008    ....    ADD      r0,r0,r8
        0x0000800c:    e0811008    ....    ADD      r1,r1,r8
        0x00008010:    e240b001    ..@.    SUB      r11,r0,#1
    _move_region
        0x00008014:    e1500001    ..P.    CMP      r0,r1
        0x00008018:    0a000013    ....    BEQ      _move_all_done  ; 0x806c
        0x0000801c:    e8b00070    p...    LDMIA    r0!,{r4-r6}
        0x00008020:    e1540005    ..T.    CMP      r4,r5
        0x00008024:    0afffffa    ....    BEQ      _move_region  ; 0x8014
        0x00008028:    e3140001    ....    TST      r4,#1
        0x0000802c:    1084400b    .@..    ADDNE    r4,r4,r11
        0x00008030:    e3150001    ....    TST      r5,#1
        0x00008034:    1085500b    .P..    ADDNE    r5,r5,r11
        0x00008038:    e3150002    ....    TST      r5,#2
        0x0000803c:    10855009    .P..    ADDNE    r5,r5,r9
        0x00008040:    e3c55003    .P..    BIC      r5,r5,#3
    _move_loop
        0x00008044:    e2566010    .`V.    SUBS     r6,r6,#0x10
        0x00008048:    28b4108c    ...(    LDMCSIA  r4!,{r2,r3,r7,r12}
        0x0000804c:    28a5108c    ...(    STMCSIA  r5!,{r2,r3,r7,r12}
        0x00008050:    8afffffb    ....    BHI      _move_loop  ; 0x8044
        0x00008054:    e1b06e86    .n..    MOVS     r6,r6,LSL #29
        0x00008058:    28b4000c    ...(    LDMCSIA  r4!,{r2,r3}
        0x0000805c:    28a5000c    ...(    STMCSIA  r5!,{r2,r3}
        0x00008060:    44947004    .p.D    LDRMI    r7,[r4],#4
        0x00008064:    44857004    .p.D    STRMI    r7,[r5],#4
        0x00008068:    eaffffe9    ....    B        _move_region  ; 0x8014
    _move_all_done
        0x0000806c:    e5982008    . ..    LDR      r2,[r8,#8]
        0x00008070:    e598300c    .0..    LDR      r3,[r8,#0xc]
        0x00008074:    e0822008    . ..    ADD      r2,r2,r8
        0x00008078:    e0833008    .0..    ADD      r3,r3,r8
        0x0000807c:    e242c001    ..B.    SUB      r12,r2,#1
        0x00008080:    e3a07000    .p..    MOV      r7,#0
        0x00008084:    e3a00000    ....    MOV      r0,#0
        0x00008088:    e3a06000    .`..    MOV      r6,#0
        0x0000808c:    e3a0b000    ....    MOV      r11,#0
    _zero_region
        0x00008090:    e1520003    ..R.    CMP      r2,r3
        0x00008094:    0b0002d6    ....    BLEQ     __rt_entry  ; 0x8bf4
        0x00008098:    e8b20030    0...    LDMIA    r2!,{r4,r5}
        0x0000809c:    e3140001    ....    TST      r4,#1
        0x000080a0:    1084400c    .@..    ADDNE    r4,r4,r12
        0x000080a4:    e3140002    ....    TST      r4,#2
        0x000080a8:    10844009    .@..    ADDNE    r4,r4,r9
        0x000080ac:    e3c44003    .@..    BIC      r4,r4,#3
    _zero_loop
        0x000080b0:    e2555010    .PU.    SUBS     r5,r5,#0x10
        0x000080b4:    28a408c1    ...(    STMCSIA  r4!,{r0,r6,r7,r11}
        0x000080b8:    8afffffc    ....    BHI      _zero_loop  ; 0x80b0
        0x000080bc:    e1b05e85    .^..    MOVS     r5,r5,LSL #29
        0x000080c0:    28a40041    A..(    STMCSIA  r4!,{r0,r6}
        0x000080c4:    44847004    .p.D    STRMI    r7,[r4],#4
        0x000080c8:    eafffff0    ....    B        _zero_region  ; 0x8090
    _region_table
    $d
        0x000080cc:    00001dc8    ....    DCD    7624
        0x000080d0:    00001dec    ....    DCD    7660
        0x000080d4:    00001dec    ....    DCD    7660
        0x000080d8:    00001e04    ....    DCD    7684
    my_add
    $t
    .text
        0x000080dc:    1840        @.      ADD      r0,r0,r1
        0x000080de:    1a41        A.      SUB      r1,r0,r1
        0x000080e0:    1a40        @.      SUB      r0,r0,r1
        0x000080e2:    1840        @.      ADD      r0,r0,r1
        0x000080e4:    4770        pG      BX       r14
    entrance
        0x000080e6:    b510        ..      PUSH     {r4,r14}
        0x000080e8:    b09c        ..      SUB      r13,#0x70
        0x000080ea:    a803        ..      ADD      r0,r13,#0xc
        0x000080ec:    2264        d"      MOV      r2,#0x64
        0x000080ee:    4910        .I      LDR      r1,0x8130
    $b
        0x000080f0:    f000f86e    ..n.    BL       __16__rt_memcpy  ; 0x81d0
        0x000080f4:    4c0f        .L      LDR      r4,0x8134
        0x000080f6:    2002        .       MOV      r0,#2
        0x000080f8:    6861        ah      LDR      r1,[r4,#4]
    $b
        0x000080fa:    f7ffffef    ....    BL       my_add  ; 0x80dc
        0x000080fe:    1c02        ..      MOV      r2,r0
        0x00008100:    2302        .#      MOV      r3,#2
        0x00008102:    5ee0        .^      LDRSH    r0,[r4,r3]
        0x00008104:    6861        ah      LDR      r1,[r4,#4]
        0x00008106:    9202        ..      STR      r2,[r13,#8]
        0x00008108:    9000        ..      STR      r0,[r13,#0]
        0x0000810a:    9101        ..      STR      r1,[r13,#4]
        0x0000810c:    7863        cx      LDRB     r3,[r4,#1]
        0x0000810e:    7822        "x      LDRB     r2,[r4,#0]
        0x00008110:    a109        ..      ADR      r1,0x8138
        0x00008112:    a803        ..      ADD      r0,r13,#0xc
    $b
        0x00008114:    f000f83a    ..:.    BL       _sprintf  ; 0x818c
        0x00008118:    a903        ..      ADD      r1,r13,#0xc
        0x0000811a:    a00c        ..      ADR      r0,0x814c
    $b
        0x0000811c:    f000f81a    ....    BL       _printf  ; 0x8154
        0x00008120:    8860        `.      LDRH     r0,[r4,#2]
        0x00008122:    3001        .0      ADD      r0,#1
        0x00008124:    8060        `.      STRH     r0,[r4,#2]
        0x00008126:    b01c        ..      ADD      r13,#0x70
        0x00008128:    2000        .       MOV      r0,#0
        0x0000812a:    bd10        ..      POP      {r4,pc}
    main
        0x0000812c:    2000        .       MOV      r0,#0
        0x0000812e:    4770        pG      BX       r14
    $d
        0x00008130:    00009cf8    ....    DCD    40184
        0x00008134:    00009ed0    ....    DCD    40656
        0x00008138:    63256325    %c%c    DCD    1663394597
        0x0000813c:    323a6325    %c:2    DCD    842687269
        0x00008140:    25202b20     + %    DCD    622865184
        0x00008144:    203d2064    d =     DCD    540876900
        0x00008148:    00006425    %d..    DCD    25637
        0x0000814c:    00007325    %s..    DCD    29477
    _main_redirection
    $t
    .text
        0x00008150:    4770        pG      BX       r14
    _main
        0x00008152:    4770        pG      BX       r14
    _printf
    .text
        0x00008154:    b40f        ..      PUSH     {r0-r3}
        0x00008156:    b500        ..      PUSH     {r14}
        0x00008158:    b08f        ..      SUB      r13,#0x3c
        0x0000815a:    a811        ..      ADD      r0,r13,#0x44
        0x0000815c:    900e        ..      STR      r0,[r13,#0x38]
        0x0000815e:    4808        .H      LDR      r0,0x8180
        0x00008160:    4478        xD      ADD      r0,pc
        0x00008162:    9008        ..      STR      r0,[r13,#0x20]
        0x00008164:    4807        .H      LDR      r0,0x8184
        0x00008166:    4478        xD      ADD      r0,pc
        0x00008168:    9009        ..      STR      r0,[r13,#0x24]
        0x0000816a:    4807        .H      LDR      r0,0x8188
        0x0000816c:    ab01        ..      ADD      r3,r13,#4
        0x0000816e:    aa0e        ..      ADD      r2,r13,#0x38
        0x00008170:    9910        ..      LDR      r1,[r13,#0x40]
    $b
        0x00008172:    f000f889    ....    BL       __vfprintf  ; 0x8288
        0x00008176:    b00f        ..      ADD      r13,#0x3c
        0x00008178:    bc08        ..      POP      {r3}
        0x0000817a:    b004        ..      ADD      r13,#0x10
        0x0000817c:    4718        .G      BX       r3
    $d
        0x0000817e:    0000        ..      DCW    0
    $f
        0x00008180:    00000a6d    m...    DCD    2669
    $f
        0x00008184:    00000a5f    _...    DCD    2655
        0x00008188:    00009f1c    ....    DCD    40732
    _sprintf
    $t
    .text
        0x0000818c:    b40f        ..      PUSH     {r0-r3}
        0x0000818e:    b530        0.      PUSH     {r4,r5,r14}
        0x00008190:    b091        ..      SUB      r13,#0x44
        0x00008192:    900f        ..      STR      r0,[r13,#0x3c]
        0x00008194:    480c        .H      LDR      r0,0x81c8
        0x00008196:    a916        ..      ADD      r1,r13,#0x58
        0x00008198:    910e        ..      STR      r1,[r13,#0x38]
        0x0000819a:    4478        xD      ADD      r0,pc
        0x0000819c:    9008        ..      STR      r0,[r13,#0x20]
        0x0000819e:    480b        .H      LDR      r0,0x81cc
        0x000081a0:    4478        xD      ADD      r0,pc
        0x000081a2:    9009        ..      STR      r0,[r13,#0x24]
        0x000081a4:    ad0f        ..      ADD      r5,r13,#0x3c
        0x000081a6:    1c28        (.      MOV      r0,r5
        0x000081a8:    ab01        ..      ADD      r3,r13,#4
        0x000081aa:    aa0e        ..      ADD      r2,r13,#0x38
        0x000081ac:    9915        ..      LDR      r1,[r13,#0x54]
    $b
        0x000081ae:    f000f86b    ..k.    BL       __vfprintf  ; 0x8288
        0x000081b2:    1c04        ..      MOV      r4,r0
        0x000081b4:    1c29        ).      MOV      r1,r5
        0x000081b6:    2000        .       MOV      r0,#0
    $b
        0x000081b8:    f000fcfc    ....    BL       _sputc  ; 0x8bb4
        0x000081bc:    1c20         .      MOV      r0,r4
        0x000081be:    b011        ..      ADD      r13,#0x44
        0x000081c0:    bc30        0.      POP      {r4,r5}
        0x000081c2:    bc08        ..      POP      {r3}
        0x000081c4:    b004        ..      ADD      r13,#0x10
        0x000081c6:    4718        .G      BX       r3
    $d
    $f
        0x000081c8:    00000a17    ....    DCD    2583
    $f
        0x000081cc:    00000a1f    ....    DCD    2591
    __16__rt_memcpy
    $t
    .text
        0x000081d0:    4778        xG      BX       pc
    $d
        0x000081d2:    0000        ..      DCW    0
    __rt_memcpy
    $a
        0x000081d4:    e3520003    ..R.    CMP      r2,#3
        0x000081d8:    9a0002ad    ....    BLS      _memcpy_lastbytes  ; 0x8c94
        0x000081dc:    e210c003    ....    ANDS     r12,r0,#3
        0x000081e0:    0a000008    ....    BEQ      _memcpy_dest_aligned  ; 0x8208
        0x000081e4:    e4d13001    .0..    LDRB     r3,[r1],#1
        0x000081e8:    e35c0002    ..\.    CMP      r12,#2
        0x000081ec:    e082200c    . ..    ADD      r2,r2,r12
        0x000081f0:    94d1c001    ....    LDRLSB   r12,[r1],#1
        0x000081f4:    e4c03001    .0..    STRB     r3,[r0],#1
        0x000081f8:    34d13001    .0.4    LDRCCB   r3,[r1],#1
        0x000081fc:    e2422004    . B.    SUB      r2,r2,#4
        0x00008200:    94c0c001    ....    STRLSB   r12,[r0],#1
        0x00008204:    34c03001    .0.4    STRCCB   r3,[r0],#1
    _memcpy_dest_aligned
        0x00008208:    e2113003    .0..    ANDS     r3,r1,#3
        0x0000820c:    0a00028d    ....    BEQ      __rt_memcpy_w  ; 0x8c48
        0x00008210:    e2522004    . R.    SUBS     r2,r2,#4
        0x00008214:    3a00029e    ...:    BCC      _memcpy_lastbytes  ; 0x8c94
        0x00008218:    e731c003    ..1.    LDR      r12,[r1,-r3]!
        0x0000821c:    e3530002    ..S.    CMP      r3,#2
        0x00008220:    0a000008    ....    BEQ      _memcpy_src2_loop  ; 0x8248
        0x00008224:    8a00000f    ....    BHI      _memcpy_src3_loop  ; 0x8268
    _memcpy_src1_loop
        0x00008228:    e1a0342c    ,4..    MOV      r3,r12,LSR #8
        0x0000822c:    e5b1c004    ....    LDR      r12,[r1,#4]!
        0x00008230:    e2522004    . R.    SUBS     r2,r2,#4
        0x00008234:    e1833c0c    .<..    ORR      r3,r3,r12,LSL #24
        0x00008238:    e4803004    .0..    STR      r3,[r0],#4
        0x0000823c:    2afffff9    ...*    BCS      _memcpy_src1_loop  ; 0x8228
        0x00008240:    e2811001    ....    ADD      r1,r1,#1
        0x00008244:    ea000292    ....    B        _memcpy_lastbytes  ; 0x8c94
    _memcpy_src2_loop
        0x00008248:    e1a0382c    ,8..    MOV      r3,r12,LSR #16
        0x0000824c:    e5b1c004    ....    LDR      r12,[r1,#4]!
        0x00008250:    e2522004    . R.    SUBS     r2,r2,#4
        0x00008254:    e183380c    .8..    ORR      r3,r3,r12,LSL #16
        0x00008258:    e4803004    .0..    STR      r3,[r0],#4
        0x0000825c:    2afffff9    ...*    BCS      _memcpy_src2_loop  ; 0x8248
        0x00008260:    e2811002    ....    ADD      r1,r1,#2
        0x00008264:    ea00028a    ....    B        _memcpy_lastbytes  ; 0x8c94
    _memcpy_src3_loop
        0x00008268:    e1a03c2c    ,<..    MOV      r3,r12,LSR #24
        0x0000826c:    e5b1c004    ....    LDR      r12,[r1,#4]!
        0x00008270:    e2522004    . R.    SUBS     r2,r2,#4
        0x00008274:    e183340c    .4..    ORR      r3,r3,r12,LSL #8
        0x00008278:    e4803004    .0..    STR      r3,[r0],#4
        0x0000827c:    2afffff9    ...*    BCS      _memcpy_src3_loop  ; 0x8268
        0x00008280:    e2811003    ....    ADD      r1,r1,#3
        0x00008284:    ea000282    ....    B        _memcpy_lastbytes  ; 0x8c94
    __vfprintf
    $t
    .text
        0x00008288:    b5f0        ..      PUSH     {r4-r7,r14}
        0x0000828a:    b40f        ..      PUSH     {r0-r3}
        0x0000828c:    b089        ..      SUB      r13,#0x24
        0x0000828e:    2000        .       MOV      r0,#0
        0x00008290:    9007        ..      STR      r0,[r13,#0x1c]
        0x00008292:    7808        .x      LDRB     r0,[r1,#0]
        0x00008294:    1c4f        O.      ADD      r7,r1,#1
        0x00008296:    1c1e        ..      MOV      r6,r3
        0x00008298:    1c15        ..      MOV      r5,r2
        0x0000829a:    2800        .(      CMP      r0,#0
        0x0000829c:    d064        d.      BEQ      0x8368
        0x0000829e:    2825        %(      CMP      r0,#0x25
        0x000082a0:    d007        ..      BEQ      0x82b2
        0x000082a2:    69f2        .i      LDR      r2,[r6,#0x1c]
        0x000082a4:    9909        ..      LDR      r1,[r13,#0x24]
    $b
        0x000082a6:    f000fef5    ....    BL       __call_via_r2  ; 0x9094
        0x000082aa:    9807        ..      LDR      r0,[r13,#0x1c]
        0x000082ac:    3001        .0      ADD      r0,#1
        0x000082ae:    9007        ..      STR      r0,[r13,#0x1c]
        0x000082b0:    e139        9.      B        0x8526
        0x000082b2:    2400        .$      MOV      r4,#0
        0x000082b4:    9405        ..      STR      r4,[r13,#0x14]
        0x000082b6:    2100        .!      MOV      r1,#0
        0x000082b8:    60b1        .`      STR      r1,[r6,#8]
        0x000082ba:    2101        .!      MOV      r1,#1
        0x000082bc:    2204        ."      MOV      r2,#4
        0x000082be:    2008        .       MOV      r0,#8
        0x000082c0:    783b        ;x      LDRB     r3,[r7,#0]
        0x000082c2:    3701        .7      ADD      r7,#1
        0x000082c4:    2b2b        ++      CMP      r3,#0x2b
        0x000082c6:    9308        ..      STR      r3,[r13,#0x20]
        0x000082c8:    d013        ..      BEQ      0x82f2
        0x000082ca:    dc05        ..      BGT      0x82d8
        0x000082cc:    2b20         +      CMP      r3,#0x20
        0x000082ce:    d013        ..      BEQ      0x82f8
        0x000082d0:    2b23        #+      CMP      r3,#0x23
        0x000082d2:    d113        ..      BNE      0x82fc
        0x000082d4:    4304        .C      ORR      r4,r0
        0x000082d6:    e7f3        ..      B        0x82c0
        0x000082d8:    2b2d        -+      CMP      r3,#0x2d
        0x000082da:    d005        ..      BEQ      0x82e8
        0x000082dc:    2b30        0+      CMP      r3,#0x30
        0x000082de:    d10d        ..      BNE      0x82fc
        0x000082e0:    23ff        .#      MOV      r3,#0xff
        0x000082e2:    3301        .3      ADD      r3,#1
        0x000082e4:    431c        .C      ORR      r4,r3
        0x000082e6:    e7eb        ..      B        0x82c0
        0x000082e8:    23ff        .#      MOV      r3,#0xff
        0x000082ea:    3301        .3      ADD      r3,#1
        0x000082ec:    439c        .C      BIC      r4,r3
        0x000082ee:    430c        .C      ORR      r4,r1
        0x000082f0:    e7e6        ..      B        0x82c0
        0x000082f2:    2302        .#      MOV      r3,#2
        0x000082f4:    431c        .C      ORR      r4,r3
        0x000082f6:    e7e3        ..      B        0x82c0
        0x000082f8:    4314        .C      ORR      r4,r2
        0x000082fa:    e7e1        ..      B        0x82c0
        0x000082fc:    9b08        ..      LDR      r3,[r13,#0x20]
        0x000082fe:    2200        ."      MOV      r2,#0
        0x00008300:    2b2a        *+      CMP      r3,#0x2a
        0x00008302:    d10a        ..      BNE      0x831a
        0x00008304:    682b        +h      LDR      r3,[r5,#0]
        0x00008306:    cb04        ..      LDMIA    r3!,{r2}
        0x00008308:    602b        +`      STR      r3,[r5,#0]
        0x0000830a:    2a00        .*      CMP      r2,#0
        0x0000830c:    da01        ..      BGE      0x8312
        0x0000830e:    4252        RB      NEG      r2,r2
        0x00008310:    404c        L@      EOR      r4,r1
        0x00008312:    783b        ;x      LDRB     r3,[r7,#0]
        0x00008314:    3701        .7      ADD      r7,#1
        0x00008316:    9308        ..      STR      r3,[r13,#0x20]
        0x00008318:    e010        ..      B        0x833c
        0x0000831a:    9908        ..      LDR      r1,[r13,#0x20]
        0x0000831c:    3930        09      SUB      r1,#0x30
        0x0000831e:    290a        .)      CMP      r1,#0xa
        0x00008320:    d20c        ..      BCS      0x833c
        0x00008322:    0091        ..      LSL      r1,r2,#2
        0x00008324:    1889        ..      ADD      r1,r1,r2
        0x00008326:    9b08        ..      LDR      r3,[r13,#0x20]
        0x00008328:    0049        I.      LSL      r1,r1,#1
        0x0000832a:    18ca        ..      ADD      r2,r1,r3
        0x0000832c:    783b        ;x      LDRB     r3,[r7,#0]
        0x0000832e:    3701        .7      ADD      r7,#1
        0x00008330:    3a30        0:      SUB      r2,#0x30
        0x00008332:    1c19        ..      MOV      r1,r3
        0x00008334:    3930        09      SUB      r1,#0x30
        0x00008336:    290a        .)      CMP      r1,#0xa
        0x00008338:    9308        ..      STR      r3,[r13,#0x20]
        0x0000833a:    d3f2        ..      BCC      0x8322
        0x0000833c:    2100        .!      MOV      r1,#0
        0x0000833e:    1c0b        ..      MOV      r3,r1
        0x00008340:    2a00        .*      CMP      r2,#0
        0x00008342:    db00        ..      BLT      0x8346
        0x00008344:    1c13        ..      MOV      r3,r2
        0x00008346:    9306        ..      STR      r3,[r13,#0x18]
        0x00008348:    9b08        ..      LDR      r3,[r13,#0x20]
        0x0000834a:    2b2e        .+      CMP      r3,#0x2e
        0x0000834c:    d122        ".      BNE      0x8394
        0x0000834e:    783b        ;x      LDRB     r3,[r7,#0]
        0x00008350:    3701        .7      ADD      r7,#1
        0x00008352:    2200        ."      MOV      r2,#0
        0x00008354:    2b2a        *+      CMP      r3,#0x2a
        0x00008356:    9308        ..      STR      r3,[r13,#0x20]
        0x00008358:    d107        ..      BNE      0x836a
        0x0000835a:    682b        +h      LDR      r3,[r5,#0]
        0x0000835c:    cb04        ..      LDMIA    r3!,{r2}
        0x0000835e:    602b        +`      STR      r3,[r5,#0]
        0x00008360:    783b        ;x      LDRB     r3,[r7,#0]
        0x00008362:    3701        .7      ADD      r7,#1
        0x00008364:    9308        ..      STR      r3,[r13,#0x20]
        0x00008366:    e010        ..      B        0x838a
        0x00008368:    e24a        J.      B        0x8800
        0x0000836a:    9b08        ..      LDR      r3,[r13,#0x20]
        0x0000836c:    3b30        0;      SUB      r3,#0x30
        0x0000836e:    2b0a        .+      CMP      r3,#0xa
        0x00008370:    d20d        ..      BCS      0x838e
        0x00008372:    0093        ..      LSL      r3,r2,#2
        0x00008374:    189a        ..      ADD      r2,r3,r2
        0x00008376:    9b08        ..      LDR      r3,[r13,#0x20]
        0x00008378:    0052        R.      LSL      r2,r2,#1
        0x0000837a:    18d2        ..      ADD      r2,r2,r3
        0x0000837c:    783b        ;x      LDRB     r3,[r7,#0]
        0x0000837e:    3701        .7      ADD      r7,#1
        0x00008380:    3a30        0:      SUB      r2,#0x30
        0x00008382:    9308        ..      STR      r3,[r13,#0x20]
        0x00008384:    3b30        0;      SUB      r3,#0x30
        0x00008386:    2b0a        .+      CMP      r3,#0xa
        0x00008388:    d3f3        ..      BCC      0x8372
        0x0000838a:    2a00        .*      CMP      r2,#0
        0x0000838c:    db02        ..      BLT      0x8394
        0x0000838e:    2310        .#      MOV      r3,#0x10
        0x00008390:    431c        .C      ORR      r4,r3
        0x00008392:    60b2        .`      STR      r2,[r6,#8]
        0x00008394:    9b08        ..      LDR      r3,[r13,#0x20]
        0x00008396:    2b6c        l+      CMP      r3,#0x6c
        0x00008398:    d003        ..      BEQ      0x83a2
        0x0000839a:    9b08        ..      LDR      r3,[r13,#0x20]
        0x0000839c:    2b4c        L+      CMP      r3,#0x4c
        0x0000839e:    d10d        ..      BNE      0x83bc
        0x000083a0:    e006        ..      B        0x83b0
        0x000083a2:    783a        :x      LDRB     r2,[r7,#0]
        0x000083a4:    2a6c        l*      CMP      r2,#0x6c
        0x000083a6:    d103        ..      BNE      0x83b0
        0x000083a8:    2240        @"      MOV      r2,#0x40
        0x000083aa:    4314        .C      ORR      r4,r2
        0x000083ac:    3701        .7      ADD      r7,#1
        0x000083ae:    e001        ..      B        0x83b4
        0x000083b0:    2220         "      MOV      r2,#0x20
        0x000083b2:    4314        .C      ORR      r4,r2
        0x000083b4:    783b        ;x      LDRB     r3,[r7,#0]
        0x000083b6:    3701        .7      ADD      r7,#1
        0x000083b8:    9308        ..      STR      r3,[r13,#0x20]
        0x000083ba:    e022        ".      B        0x8402
        0x000083bc:    9b08        ..      LDR      r3,[r13,#0x20]
        0x000083be:    2b68        h+      CMP      r3,#0x68
        0x000083c0:    d10d        ..      BNE      0x83de
        0x000083c2:    783a        :x      LDRB     r2,[r7,#0]
        0x000083c4:    2a68        h*      CMP      r2,#0x68
        0x000083c6:    d104        ..      BNE      0x83d2
        0x000083c8:    2201        ."      MOV      r2,#1
        0x000083ca:    0292        ..      LSL      r2,r2,#10
        0x000083cc:    4314        .C      ORR      r4,r2
        0x000083ce:    3701        .7      ADD      r7,#1
        0x000083d0:    e001        ..      B        0x83d6
        0x000083d2:    2280        ."      MOV      r2,#0x80
        0x000083d4:    4314        .C      ORR      r4,r2
        0x000083d6:    783b        ;x      LDRB     r3,[r7,#0]
        0x000083d8:    3701        .7      ADD      r7,#1
        0x000083da:    9308        ..      STR      r3,[r13,#0x20]
        0x000083dc:    e011        ..      B        0x8402
        0x000083de:    9b08        ..      LDR      r3,[r13,#0x20]
        0x000083e0:    2b6a        j+      CMP      r3,#0x6a
        0x000083e2:    d105        ..      BNE      0x83f0
        0x000083e4:    783b        ;x      LDRB     r3,[r7,#0]
        0x000083e6:    2240        @"      MOV      r2,#0x40
        0x000083e8:    4314        .C      ORR      r4,r2
        0x000083ea:    3701        .7      ADD      r7,#1
        0x000083ec:    9308        ..      STR      r3,[r13,#0x20]
        0x000083ee:    e008        ..      B        0x8402
        0x000083f0:    9b08        ..      LDR      r3,[r13,#0x20]
        0x000083f2:    2b74        t+      CMP      r3,#0x74
        0x000083f4:    d002        ..      BEQ      0x83fc
        0x000083f6:    9b08        ..      LDR      r3,[r13,#0x20]
        0x000083f8:    2b7a        z+      CMP      r3,#0x7a
        0x000083fa:    d102        ..      BNE      0x8402
        0x000083fc:    783b        ;x      LDRB     r3,[r7,#0]
        0x000083fe:    3701        .7      ADD      r7,#1
        0x00008400:    9308        ..      STR      r3,[r13,#0x20]
        0x00008402:    9b08        ..      LDR      r3,[r13,#0x20]
        0x00008404:    2b67        g+      CMP      r3,#0x67
        0x00008406:    d066        f.      BEQ      0x84d6
        0x00008408:    dc12        ..      BGT      0x8430
        0x0000840a:    2b63        c+      CMP      r3,#0x63
        0x0000840c:    d021        !.      BEQ      0x8452
        0x0000840e:    dc08        ..      BGT      0x8422
        0x00008410:    2b00        .+      CMP      r3,#0
        0x00008412:    d056        V.      BEQ      0x84c2
        0x00008414:    2b45        E+      CMP      r3,#0x45
        0x00008416:    d05e        ^.      BEQ      0x84d6
        0x00008418:    2b47        G+      CMP      r3,#0x47
        0x0000841a:    d05c        \.      BEQ      0x84d6
        0x0000841c:    2b58        X+      CMP      r3,#0x58
        0x0000841e:    d065        e.      BEQ      0x84ec
        0x00008420:    e01b        ..      B        0x845a
        0x00008422:    2b64        d+      CMP      r3,#0x64
        0x00008424:    d063        c.      BEQ      0x84ee
        0x00008426:    2b65        e+      CMP      r3,#0x65
        0x00008428:    d055        U.      BEQ      0x84d6
        0x0000842a:    2b66        f+      CMP      r3,#0x66
        0x0000842c:    d053        S.      BEQ      0x84d6
        0x0000842e:    e014        ..      B        0x845a
        0x00008430:    2b70        p+      CMP      r3,#0x70
        0x00008432:    d066        f.      BEQ      0x8502
        0x00008434:    dc06        ..      BGT      0x8444
        0x00008436:    2b69        i+      CMP      r3,#0x69
        0x00008438:    d059        Y.      BEQ      0x84ee
        0x0000843a:    2b6e        n+      CMP      r3,#0x6e
        0x0000843c:    d043        C.      BEQ      0x84c6
        0x0000843e:    2b6f        o+      CMP      r3,#0x6f
        0x00008440:    d068        h.      BEQ      0x8514
        0x00008442:    e00a        ..      B        0x845a
        0x00008444:    2b73        s+      CMP      r3,#0x73
        0x00008446:    d066        f.      BEQ      0x8516
        0x00008448:    2b75        u+      CMP      r3,#0x75
        0x0000844a:    d065        e.      BEQ      0x8518
        0x0000844c:    2b78        x+      CMP      r3,#0x78
        0x0000844e:    d064        d.      BEQ      0x851a
        0x00008450:    e003        ..      B        0x845a
        0x00008452:    6828        (h      LDR      r0,[r5,#0]
        0x00008454:    c802        ..      LDMIA    r0!,{r1}
        0x00008456:    6028        (`      STR      r0,[r5,#0]
        0x00008458:    9108        ..      STR      r1,[r13,#0x20]
        0x0000845a:    9b06        ..      LDR      r3,[r13,#0x18]
        0x0000845c:    3b01        .;      SUB      r3,#1
        0x0000845e:    9306        ..      STR      r3,[r13,#0x18]
        0x00008460:    07e0        ..      LSL      r0,r4,#31
        0x00008462:    d416        ..      BMI      0x8492
        0x00008464:    2030        0       MOV      r0,#0x30
        0x00008466:    05e1        ..      LSL      r1,r4,#23
        0x00008468:    d400        ..      BMI      0x846c
        0x0000846a:    2020                MOV      r0,#0x20
        0x0000846c:    0600        ..      LSL      r0,r0,#24
        0x0000846e:    0e00        ..      LSR      r0,r0,#24
        0x00008470:    9004        ..      STR      r0,[r13,#0x10]
        0x00008472:    9806        ..      LDR      r0,[r13,#0x18]
        0x00008474:    3801        .8      SUB      r0,#1
        0x00008476:    9006        ..      STR      r0,[r13,#0x18]
        0x00008478:    d40b        ..      BMI      0x8492
        0x0000847a:    9807        ..      LDR      r0,[r13,#0x1c]
        0x0000847c:    3001        .0      ADD      r0,#1
        0x0000847e:    9007        ..      STR      r0,[r13,#0x1c]
        0x00008480:    69f2        .i      LDR      r2,[r6,#0x1c]
        0x00008482:    9804        ..      LDR      r0,[r13,#0x10]
        0x00008484:    9909        ..      LDR      r1,[r13,#0x24]
    $b
        0x00008486:    f000fe05    ....    BL       __call_via_r2  ; 0x9094
        0x0000848a:    9806        ..      LDR      r0,[r13,#0x18]
        0x0000848c:    3801        .8      SUB      r0,#1
        0x0000848e:    9006        ..      STR      r0,[r13,#0x18]
        0x00008490:    d5f3        ..      BPL      0x847a
        0x00008492:    69f2        .i      LDR      r2,[r6,#0x1c]
        0x00008494:    a908        ..      ADD      r1,r13,#0x20
        0x00008496:    c903        ..      LDMIA    r1!,{r0,r1}
    $b
        0x00008498:    f000fdfc    ....    BL       __call_via_r2  ; 0x9094
        0x0000849c:    9807        ..      LDR      r0,[r13,#0x1c]
        0x0000849e:    3001        .0      ADD      r0,#1
        0x000084a0:    9007        ..      STR      r0,[r13,#0x1c]
        0x000084a2:    07e0        ..      LSL      r0,r4,#31
        0x000084a4:    d53f        ?.      BPL      0x8526
        0x000084a6:    9c06        ..      LDR      r4,[r13,#0x18]
        0x000084a8:    3c01        .<      SUB      r4,#1
        0x000084aa:    d43c        <.      BMI      0x8526
        0x000084ac:    9807        ..      LDR      r0,[r13,#0x1c]
        0x000084ae:    3001        .0      ADD      r0,#1
        0x000084b0:    9007        ..      STR      r0,[r13,#0x1c]
        0x000084b2:    69f2        .i      LDR      r2,[r6,#0x1c]
        0x000084b4:    9909        ..      LDR      r1,[r13,#0x24]
        0x000084b6:    2020                MOV      r0,#0x20
    $b
        0x000084b8:    f000fdec    ....    BL       __call_via_r2  ; 0x9094
        0x000084bc:    3c01        .<      SUB      r4,#1
        0x000084be:    d5f5        ..      BPL      0x84ac
        0x000084c0:    e031        1.      B        0x8526
        0x000084c2:    3f01        .?      SUB      r7,#1
        0x000084c4:    e02f        /.      B        0x8526
        0x000084c6:    0560        `.      LSL      r0,r4,#21
        0x000084c8:    d506        ..      BPL      0x84d8
        0x000084ca:    9a07        ..      LDR      r2,[r13,#0x1c]
        0x000084cc:    6828        (h      LDR      r0,[r5,#0]
        0x000084ce:    c802        ..      LDMIA    r0!,{r1}
        0x000084d0:    6028        (`      STR      r0,[r5,#0]
        0x000084d2:    700a        .p      STRB     r2,[r1,#0]
        0x000084d4:    e027        '.      B        0x8526
        0x000084d6:    e170        p.      B        0x87ba
        0x000084d8:    0620         .      LSL      r0,r4,#24
        0x000084da:    d509        ..      BPL      0x84f0
        0x000084dc:    6829        )h      LDR      r1,[r5,#0]
        0x000084de:    c901        ..      LDMIA    r1!,{r0}
        0x000084e0:    6029        )`      STR      r1,[r5,#0]
        0x000084e2:    9a07        ..      LDR      r2,[r13,#0x1c]
        0x000084e4:    7002        .p      STRB     r2,[r0,#0]
        0x000084e6:    0a13        ..      LSR      r3,r2,#8
        0x000084e8:    7043        Cp      STRB     r3,[r0,#1]
        0x000084ea:    e01c        ..      B        0x8526
        0x000084ec:    e079        y.      B        0x85e2
        0x000084ee:    e12b        +.      B        0x8748
        0x000084f0:    0660        `.      LSL      r0,r4,#25
        0x000084f2:    d507        ..      BPL      0x8504
        0x000084f4:    6828        (h      LDR      r0,[r5,#0]
        0x000084f6:    c810        ..      LDMIA    r0!,{r4}
        0x000084f8:    6028        (`      STR      r0,[r5,#0]
        0x000084fa:    9807        ..      LDR      r0,[r13,#0x1c]
        0x000084fc:    17c1        ..      ASR      r1,r0,#31
        0x000084fe:    c403        ..      STMIA    r4!,{r0,r1}
        0x00008500:    e011        ..      B        0x8526
        0x00008502:    e0c7        ..      B        0x8694
        0x00008504:    06a0        ..      LSL      r0,r4,#26
        0x00008506:    d509        ..      BPL      0x851c
        0x00008508:    9a07        ..      LDR      r2,[r13,#0x1c]
        0x0000850a:    6828        (h      LDR      r0,[r5,#0]
        0x0000850c:    c802        ..      LDMIA    r0!,{r1}
        0x0000850e:    6028        (`      STR      r0,[r5,#0]
        0x00008510:    600a        .`      STR      r2,[r1,#0]
        0x00008512:    e008        ..      B        0x8526
        0x00008514:    e0ce        ..      B        0x86b4
        0x00008516:    e007        ..      B        0x8528
        0x00008518:    e0f3        ..      B        0x8702
        0x0000851a:    e08e        ..      B        0x863a
        0x0000851c:    9a07        ..      LDR      r2,[r13,#0x1c]
        0x0000851e:    6828        (h      LDR      r0,[r5,#0]
        0x00008520:    c802        ..      LDMIA    r0!,{r1}
        0x00008522:    6028        (`      STR      r0,[r5,#0]
        0x00008524:    600a        .`      STR      r2,[r1,#0]
        0x00008526:    e0b4        ..      B        0x8692
        0x00008528:    6828        (h      LDR      r0,[r5,#0]
        0x0000852a:    c802        ..      LDMIA    r0!,{r1}
        0x0000852c:    6028        (`      STR      r0,[r5,#0]
        0x0000852e:    9104        ..      STR      r1,[r13,#0x10]
        0x00008530:    06e0        ..      LSL      r0,r4,#27
        0x00008532:    d50f        ..      BPL      0x8554
        0x00008534:    2100        .!      MOV      r1,#0
        0x00008536:    68b0        .h      LDR      r0,[r6,#8]
        0x00008538:    9102        ..      STR      r1,[r13,#8]
        0x0000853a:    e002        ..      B        0x8542
        0x0000853c:    9902        ..      LDR      r1,[r13,#8]
        0x0000853e:    3101        .1      ADD      r1,#1
        0x00008540:    9102        ..      STR      r1,[r13,#8]
        0x00008542:    9902        ..      LDR      r1,[r13,#8]
        0x00008544:    4281        .B      CMP      r1,r0
        0x00008546:    da09        ..      BGE      0x855c
        0x00008548:    9904        ..      LDR      r1,[r13,#0x10]
        0x0000854a:    9a02        ..      LDR      r2,[r13,#8]
        0x0000854c:    5c89        .\      LDRB     r1,[r1,r2]
        0x0000854e:    2900        .)      CMP      r1,#0
        0x00008550:    d1f4        ..      BNE      0x853c
        0x00008552:    e003        ..      B        0x855c
        0x00008554:    9804        ..      LDR      r0,[r13,#0x10]
    $b
        0x00008556:    f001f989    ....    BL       strlen  ; 0x986c
        0x0000855a:    9002        ..      STR      r0,[r13,#8]
        0x0000855c:    9802        ..      LDR      r0,[r13,#8]
        0x0000855e:    9b06        ..      LDR      r3,[r13,#0x18]
        0x00008560:    1a18        ..      SUB      r0,r3,r0
        0x00008562:    9006        ..      STR      r0,[r13,#0x18]
        0x00008564:    07e0        ..      LSL      r0,r4,#31
        0x00008566:    d416        ..      BMI      0x8596
        0x00008568:    2030        0       MOV      r0,#0x30
        0x0000856a:    05e1        ..      LSL      r1,r4,#23
        0x0000856c:    d400        ..      BMI      0x8570
        0x0000856e:    2020                MOV      r0,#0x20
        0x00008570:    0600        ..      LSL      r0,r0,#24
        0x00008572:    0e00        ..      LSR      r0,r0,#24
        0x00008574:    9001        ..      STR      r0,[r13,#4]
        0x00008576:    9806        ..      LDR      r0,[r13,#0x18]
        0x00008578:    3801        .8      SUB      r0,#1
        0x0000857a:    9006        ..      STR      r0,[r13,#0x18]
        0x0000857c:    d40b        ..      BMI      0x8596
        0x0000857e:    9807        ..      LDR      r0,[r13,#0x1c]
        0x00008580:    3001        .0      ADD      r0,#1
        0x00008582:    9007        ..      STR      r0,[r13,#0x1c]
        0x00008584:    69f2        .i      LDR      r2,[r6,#0x1c]
        0x00008586:    9801        ..      LDR      r0,[r13,#4]
        0x00008588:    9909        ..      LDR      r1,[r13,#0x24]
    $b
        0x0000858a:    f000fd83    ....    BL       __call_via_r2  ; 0x9094
        0x0000858e:    9806        ..      LDR      r0,[r13,#0x18]
        0x00008590:    3801        .8      SUB      r0,#1
        0x00008592:    9006        ..      STR      r0,[r13,#0x18]
        0x00008594:    d5f3        ..      BPL      0x857e
        0x00008596:    2000        .       MOV      r0,#0
        0x00008598:    9902        ..      LDR      r1,[r13,#8]
        0x0000859a:    9003        ..      STR      r0,[r13,#0xc]
        0x0000859c:    2900        .)      CMP      r1,#0
        0x0000859e:    dd0c        ..      BLE      0x85ba
        0x000085a0:    a903        ..      ADD      r1,r13,#0xc
        0x000085a2:    c903        ..      LDMIA    r1!,{r0,r1}
        0x000085a4:    5c08        .\      LDRB     r0,[r1,r0]
        0x000085a6:    69f2        .i      LDR      r2,[r6,#0x1c]
        0x000085a8:    9909        ..      LDR      r1,[r13,#0x24]
    $b
        0x000085aa:    f000fd73    ..s.    BL       __call_via_r2  ; 0x9094
        0x000085ae:    9803        ..      LDR      r0,[r13,#0xc]
        0x000085b0:    9902        ..      LDR      r1,[r13,#8]
        0x000085b2:    3001        .0      ADD      r0,#1
        0x000085b4:    9003        ..      STR      r0,[r13,#0xc]
        0x000085b6:    4288        .B      CMP      r0,r1
        0x000085b8:    dbf2        ..      BLT      0x85a0
        0x000085ba:    9807        ..      LDR      r0,[r13,#0x1c]
        0x000085bc:    9902        ..      LDR      r1,[r13,#8]
        0x000085be:    1840        @.      ADD      r0,r0,r1
        0x000085c0:    9007        ..      STR      r0,[r13,#0x1c]
        0x000085c2:    07e0        ..      LSL      r0,r4,#31
        0x000085c4:    d565        e.      BPL      0x8692
        0x000085c6:    9c06        ..      LDR      r4,[r13,#0x18]
        0x000085c8:    3c01        .<      SUB      r4,#1
        0x000085ca:    d462        b.      BMI      0x8692
        0x000085cc:    9807        ..      LDR      r0,[r13,#0x1c]
        0x000085ce:    3001        .0      ADD      r0,#1
        0x000085d0:    9007        ..      STR      r0,[r13,#0x1c]
        0x000085d2:    69f2        .i      LDR      r2,[r6,#0x1c]
        0x000085d4:    9909        ..      LDR      r1,[r13,#0x24]
        0x000085d6:    2020                MOV      r0,#0x20
    $b
        0x000085d8:    f000fd5c    ..\.    BL       __call_via_r2  ; 0x9094
        0x000085dc:    3c01        .<      SUB      r4,#1
        0x000085de:    d5f5        ..      BPL      0x85cc
        0x000085e0:    e057        W.      B        0x8692
        0x000085e2:    0660        `.      LSL      r0,r4,#25
        0x000085e4:    6828        (h      LDR      r0,[r5,#0]
        0x000085e6:    d507        ..      BPL      0x85f8
        0x000085e8:    1c01        ..      MOV      r1,r0
        0x000085ea:    3108        .1      ADD      r1,#8
        0x000085ec:    6029        )`      STR      r1,[r5,#0]
        0x000085ee:    6801        .h      LDR      r1,[r0,#0]
        0x000085f0:    6840        @h      LDR      r0,[r0,#4]
        0x000085f2:    6330        0c      STR      r0,[r6,#0x30]
        0x000085f4:    62f1        .b      STR      r1,[r6,#0x2c]
        0x000085f6:    e002        ..      B        0x85fe
        0x000085f8:    c802        ..      LDMIA    r0!,{r1}
        0x000085fa:    6028        (`      STR      r0,[r5,#0]
        0x000085fc:    9105        ..      STR      r1,[r13,#0x14]
        0x000085fe:    0560        `.      LSL      r0,r4,#21
        0x00008600:    d504        ..      BPL      0x860c
        0x00008602:    9905        ..      LDR      r1,[r13,#0x14]
        0x00008604:    0609        ..      LSL      r1,r1,#24
        0x00008606:    0e09        ..      LSR      r1,r1,#24
        0x00008608:    9105        ..      STR      r1,[r13,#0x14]
        0x0000860a:    e005        ..      B        0x8618
        0x0000860c:    0620         .      LSL      r0,r4,#24
        0x0000860e:    d503        ..      BPL      0x8618
        0x00008610:    9905        ..      LDR      r1,[r13,#0x14]
        0x00008612:    0409        ..      LSL      r1,r1,#16
        0x00008614:    0c09        ..      LSR      r1,r1,#16
        0x00008616:    9105        ..      STR      r1,[r13,#0x14]
        0x00008618:    a0f0        ..      ADR      r0,0x89dc
        0x0000861a:    6270        pb      STR      r0,[r6,#0x24]
        0x0000861c:    0720         .      LSL      r0,r4,#28
        0x0000861e:    d504        ..      BPL      0x862a
        0x00008620:    9905        ..      LDR      r1,[r13,#0x14]
        0x00008622:    2900        .)      CMP      r1,#0
        0x00008624:    d001        ..      BEQ      0x862a
        0x00008626:    a0f2        ..      ADR      r0,0x89f0
        0x00008628:    e000        ..      B        0x862c
        0x0000862a:    a0f0        ..      ADR      r0,0x89ec
        0x0000862c:    6070        p`      STR      r0,[r6,#4]
        0x0000862e:    06e0        ..      LSL      r0,r4,#27
        0x00008630:    d53f        ?.      BPL      0x86b2
        0x00008632:    23ff        .#      MOV      r3,#0xff
        0x00008634:    3301        .3      ADD      r3,#1
        0x00008636:    439c        .C      BIC      r4,r3
        0x00008638:    e03b        ;.      B        0x86b2
        0x0000863a:    0660        `.      LSL      r0,r4,#25
        0x0000863c:    6828        (h      LDR      r0,[r5,#0]
        0x0000863e:    d507        ..      BPL      0x8650
        0x00008640:    1c01        ..      MOV      r1,r0
        0x00008642:    3108        .1      ADD      r1,#8
        0x00008644:    6029        )`      STR      r1,[r5,#0]
        0x00008646:    6801        .h      LDR      r1,[r0,#0]
        0x00008648:    6840        @h      LDR      r0,[r0,#4]
        0x0000864a:    6330        0c      STR      r0,[r6,#0x30]
        0x0000864c:    62f1        .b      STR      r1,[r6,#0x2c]
        0x0000864e:    e002        ..      B        0x8656
        0x00008650:    c802        ..      LDMIA    r0!,{r1}
        0x00008652:    6028        (`      STR      r0,[r5,#0]
        0x00008654:    9105        ..      STR      r1,[r13,#0x14]
        0x00008656:    0560        `.      LSL      r0,r4,#21
        0x00008658:    d504        ..      BPL      0x8664
        0x0000865a:    9905        ..      LDR      r1,[r13,#0x14]
        0x0000865c:    0609        ..      LSL      r1,r1,#24
        0x0000865e:    0e09        ..      LSR      r1,r1,#24
        0x00008660:    9105        ..      STR      r1,[r13,#0x14]
        0x00008662:    e005        ..      B        0x8670
        0x00008664:    0620         .      LSL      r0,r4,#24
        0x00008666:    d503        ..      BPL      0x8670
        0x00008668:    9905        ..      LDR      r1,[r13,#0x14]
        0x0000866a:    0409        ..      LSL      r1,r1,#16
        0x0000866c:    0c09        ..      LSR      r1,r1,#16
        0x0000866e:    9105        ..      STR      r1,[r13,#0x14]
        0x00008670:    a0e0        ..      ADR      r0,0x89f4
        0x00008672:    6270        pb      STR      r0,[r6,#0x24]
        0x00008674:    0720         .      LSL      r0,r4,#28
        0x00008676:    d504        ..      BPL      0x8682
        0x00008678:    9905        ..      LDR      r1,[r13,#0x14]
        0x0000867a:    2900        .)      CMP      r1,#0
        0x0000867c:    d001        ..      BEQ      0x8682
        0x0000867e:    a0e2        ..      ADR      r0,0x8a08
        0x00008680:    e000        ..      B        0x8684
        0x00008682:    a0da        ..      ADR      r0,0x89ec
        0x00008684:    6070        p`      STR      r0,[r6,#4]
        0x00008686:    06e0        ..      LSL      r0,r4,#27
        0x00008688:    d513        ..      BPL      0x86b2
        0x0000868a:    23ff        .#      MOV      r3,#0xff
        0x0000868c:    3301        .3      ADD      r3,#1
        0x0000868e:    439c        .C      BIC      r4,r3
        0x00008690:    e00f        ..      B        0x86b2
        0x00008692:    e0b0        ..      B        0x87f6
        0x00008694:    682a        *h      LDR      r2,[r5,#0]
        0x00008696:    ca02        ..      LDMIA    r2!,{r1}
        0x00008698:    602a        *`      STR      r2,[r5,#0]
        0x0000869a:    9105        ..      STR      r1,[r13,#0x14]
        0x0000869c:    a1d5        ..      ADR      r1,0x89f4
        0x0000869e:    6271        qb      STR      r1,[r6,#0x24]
        0x000086a0:    0721        !.      LSL      r1,r4,#28
        0x000086a2:    d501        ..      BPL      0x86a8
        0x000086a4:    a1d9        ..      ADR      r1,0x8a0c
        0x000086a6:    e000        ..      B        0x86aa
        0x000086a8:    a1d0        ..      ADR      r1,0x89ec
        0x000086aa:    2310        .#      MOV      r3,#0x10
        0x000086ac:    60b0        .`      STR      r0,[r6,#8]
        0x000086ae:    6071        q`      STR      r1,[r6,#4]
        0x000086b0:    431c        .C      ORR      r4,r3
        0x000086b2:    e081        ..      B        0x87b8
        0x000086b4:    0660        `.      LSL      r0,r4,#25
        0x000086b6:    6828        (h      LDR      r0,[r5,#0]
        0x000086b8:    d507        ..      BPL      0x86ca
        0x000086ba:    1c01        ..      MOV      r1,r0
        0x000086bc:    3108        .1      ADD      r1,#8
        0x000086be:    6029        )`      STR      r1,[r5,#0]
        0x000086c0:    6801        .h      LDR      r1,[r0,#0]
        0x000086c2:    6840        @h      LDR      r0,[r0,#4]
        0x000086c4:    6330        0c      STR      r0,[r6,#0x30]
        0x000086c6:    62f1        .b      STR      r1,[r6,#0x2c]
        0x000086c8:    e002        ..      B        0x86d0
        0x000086ca:    c802        ..      LDMIA    r0!,{r1}
        0x000086cc:    6028        (`      STR      r0,[r5,#0]
        0x000086ce:    9105        ..      STR      r1,[r13,#0x14]
        0x000086d0:    0560        `.      LSL      r0,r4,#21
        0x000086d2:    d504        ..      BPL      0x86de
        0x000086d4:    9905        ..      LDR      r1,[r13,#0x14]
        0x000086d6:    0609        ..      LSL      r1,r1,#24
        0x000086d8:    0e09        ..      LSR      r1,r1,#24
        0x000086da:    9105        ..      STR      r1,[r13,#0x14]
        0x000086dc:    e005        ..      B        0x86ea
        0x000086de:    0620         .      LSL      r0,r4,#24
        0x000086e0:    d503        ..      BPL      0x86ea
        0x000086e2:    9905        ..      LDR      r1,[r13,#0x14]
        0x000086e4:    0409        ..      LSL      r1,r1,#16
        0x000086e6:    0c09        ..      LSR      r1,r1,#16
        0x000086e8:    9105        ..      STR      r1,[r13,#0x14]
        0x000086ea:    0720         .      LSL      r0,r4,#28
        0x000086ec:    d501        ..      BPL      0x86f2
        0x000086ee:    a0c8        ..      ADR      r0,0x8a10
        0x000086f0:    e000        ..      B        0x86f4
        0x000086f2:    a0be        ..      ADR      r0,0x89ec
        0x000086f4:    6070        p`      STR      r0,[r6,#4]
        0x000086f6:    06e0        ..      LSL      r0,r4,#27
        0x000086f8:    d55e        ^.      BPL      0x87b8
        0x000086fa:    23ff        .#      MOV      r3,#0xff
        0x000086fc:    3301        .3      ADD      r3,#1
        0x000086fe:    439c        .C      BIC      r4,r3
        0x00008700:    e05a        Z.      B        0x87b8
        0x00008702:    0660        `.      LSL      r0,r4,#25
        0x00008704:    6828        (h      LDR      r0,[r5,#0]
        0x00008706:    d507        ..      BPL      0x8718
        0x00008708:    1c01        ..      MOV      r1,r0
        0x0000870a:    3108        .1      ADD      r1,#8
        0x0000870c:    6029        )`      STR      r1,[r5,#0]
        0x0000870e:    6801        .h      LDR      r1,[r0,#0]
        0x00008710:    6840        @h      LDR      r0,[r0,#4]
        0x00008712:    6330        0c      STR      r0,[r6,#0x30]
        0x00008714:    62f1        .b      STR      r1,[r6,#0x2c]
        0x00008716:    e002        ..      B        0x871e
        0x00008718:    c802        ..      LDMIA    r0!,{r1}
        0x0000871a:    6028        (`      STR      r0,[r5,#0]
        0x0000871c:    9105        ..      STR      r1,[r13,#0x14]
        0x0000871e:    0560        `.      LSL      r0,r4,#21
        0x00008720:    d504        ..      BPL      0x872c
        0x00008722:    9905        ..      LDR      r1,[r13,#0x14]
        0x00008724:    0609        ..      LSL      r1,r1,#24
        0x00008726:    0e09        ..      LSR      r1,r1,#24
        0x00008728:    9105        ..      STR      r1,[r13,#0x14]
        0x0000872a:    e005        ..      B        0x8738
        0x0000872c:    0620         .      LSL      r0,r4,#24
        0x0000872e:    d503        ..      BPL      0x8738
        0x00008730:    9905        ..      LDR      r1,[r13,#0x14]
        0x00008732:    0409        ..      LSL      r1,r1,#16
        0x00008734:    0c09        ..      LSR      r1,r1,#16
        0x00008736:    9105        ..      STR      r1,[r13,#0x14]
        0x00008738:    a0ac        ..      ADR      r0,0x89ec
        0x0000873a:    6070        p`      STR      r0,[r6,#4]
        0x0000873c:    06e0        ..      LSL      r0,r4,#27
        0x0000873e:    d53b        ;.      BPL      0x87b8
        0x00008740:    23ff        .#      MOV      r3,#0xff
        0x00008742:    3301        .3      ADD      r3,#1
        0x00008744:    439c        .C      BIC      r4,r3
        0x00008746:    e037        7.      B        0x87b8
        0x00008748:    0660        `.      LSL      r0,r4,#25
        0x0000874a:    6829        )h      LDR      r1,[r5,#0]
        0x0000874c:    d511        ..      BPL      0x8772
        0x0000874e:    1c08        ..      MOV      r0,r1
        0x00008750:    3008        .0      ADD      r0,#8
        0x00008752:    6028        (`      STR      r0,[r5,#0]
        0x00008754:    c903        ..      LDMIA    r1!,{r0,r1}
        0x00008756:    62f0        .b      STR      r0,[r6,#0x2c]
        0x00008758:    6331        1c      STR      r1,[r6,#0x30]
        0x0000875a:    a2ae        ..      ADR      r2,0x8a14
        0x0000875c:    ca0c        ..      LDMIA    r2!,{r2,r3}
    $b
        0x0000875e:    f000fe9d    ....    BL       __16_ll_cmpge  ; 0x949c
        0x00008762:    da1a        ..      BGE      0x879a
        0x00008764:    6af0        .j      LDR      r0,[r6,#0x2c]
        0x00008766:    6b31        1k      LDR      r1,[r6,#0x30]
    $b
        0x00008768:    f000fea8    ....    BL       __16_ll_neg  ; 0x94bc
        0x0000876c:    62f0        .b      STR      r0,[r6,#0x2c]
        0x0000876e:    6331        1c      STR      r1,[r6,#0x30]
        0x00008770:    e011        ..      B        0x8796
        0x00008772:    c901        ..      LDMIA    r1!,{r0}
        0x00008774:    6029        )`      STR      r1,[r5,#0]
        0x00008776:    0561        a.      LSL      r1,r4,#21
        0x00008778:    d502        ..      BPL      0x8780
        0x0000877a:    0600        ..      LSL      r0,r0,#24
        0x0000877c:    1600        ..      ASR      r0,r0,#24
        0x0000877e:    e003        ..      B        0x8788
        0x00008780:    0621        !.      LSL      r1,r4,#24
        0x00008782:    d501        ..      BPL      0x8788
        0x00008784:    0400        ..      LSL      r0,r0,#16
        0x00008786:    1400        ..      ASR      r0,r0,#16
        0x00008788:    4241        AB      NEG      r1,r0
        0x0000878a:    2800        .(      CMP      r0,#0
        0x0000878c:    db00        ..      BLT      0x8790
        0x0000878e:    1c01        ..      MOV      r1,r0
        0x00008790:    9105        ..      STR      r1,[r13,#0x14]
        0x00008792:    2800        .(      CMP      r0,#0
        0x00008794:    da01        ..      BGE      0x879a
        0x00008796:    a0a1        ..      ADR      r0,0x8a1c
        0x00008798:    e008        ..      B        0x87ac
        0x0000879a:    07a0        ..      LSL      r0,r4,#30
        0x0000879c:    d501        ..      BPL      0x87a2
        0x0000879e:    a0a0        ..      ADR      r0,0x8a20
        0x000087a0:    e004        ..      B        0x87ac
        0x000087a2:    0760        `.      LSL      r0,r4,#29
        0x000087a4:    d501        ..      BPL      0x87aa
        0x000087a6:    a09f        ..      ADR      r0,0x8a24
        0x000087a8:    e000        ..      B        0x87ac
        0x000087aa:    a090        ..      ADR      r0,0x89ec
        0x000087ac:    6070        p`      STR      r0,[r6,#4]
        0x000087ae:    06e0        ..      LSL      r0,r4,#27
        0x000087b0:    d502        ..      BPL      0x87b8
        0x000087b2:    23ff        .#      MOV      r3,#0xff
        0x000087b4:    3301        .3      ADD      r3,#1
        0x000087b6:    439c        .C      BIC      r4,r3
        0x000087b8:    e011        ..      B        0x87de
        0x000087ba:    2001        .       MOV      r0,#1
        0x000087bc:    0240        @.      LSL      r0,r0,#9
        0x000087be:    4304        .C      ORR      r4,r0
        0x000087c0:    06e0        ..      LSL      r0,r4,#27
        0x000087c2:    d401        ..      BMI      0x87c8
        0x000087c4:    2006        .       MOV      r0,#6
        0x000087c6:    60b0        .`      STR      r0,[r6,#8]
        0x000087c8:    6828        (h      LDR      r0,[r5,#0]
        0x000087ca:    1c02        ..      MOV      r2,r0
        0x000087cc:    3208        .2      ADD      r2,#8
        0x000087ce:    602a        *`      STR      r2,[r5,#0]
        0x000087d0:    6802        .h      LDR      r2,[r0,#0]
        0x000087d2:    6840        @h      LDR      r0,[r0,#4]
        0x000087d4:    61b0        .a      STR      r0,[r6,#0x18]
        0x000087d6:    6071        q`      STR      r1,[r6,#4]
        0x000087d8:    6172        ra      STR      r2,[r6,#0x14]
        0x000087da:    2100        .!      MOV      r1,#0
        0x000087dc:    9105        ..      STR      r1,[r13,#0x14]
        0x000087de:    9b06        ..      LDR      r3,[r13,#0x18]
        0x000087e0:    1c32        2.      MOV      r2,r6
        0x000087e2:    62b3        .b      STR      r3,[r6,#0x28]
        0x000087e4:    6034        4`      STR      r4,[r6,#0]
        0x000087e6:    9809        ..      LDR      r0,[r13,#0x24]
        0x000087e8:    9908        ..      LDR      r1,[r13,#0x20]
        0x000087ea:    9b05        ..      LDR      r3,[r13,#0x14]
    $b
        0x000087ec:    f000f816    ....    BL       _printf_display  ; 0x881c
        0x000087f0:    9a07        ..      LDR      r2,[r13,#0x1c]
        0x000087f2:    1880        ..      ADD      r0,r0,r2
        0x000087f4:    9007        ..      STR      r0,[r13,#0x1c]
        0x000087f6:    7838        8x      LDRB     r0,[r7,#0]
        0x000087f8:    3701        .7      ADD      r7,#1
        0x000087fa:    2800        .(      CMP      r0,#0
        0x000087fc:    d000        ..      BEQ      0x8800
        0x000087fe:    e54e        N.      B        0x829e
        0x00008800:    6a31        1j      LDR      r1,[r6,#0x20]
        0x00008802:    9809        ..      LDR      r0,[r13,#0x24]
    $b
        0x00008804:    f000fc45    ..E.    BL       __call_via_r1  ; 0x9092
        0x00008808:    2800        .(      CMP      r0,#0
        0x0000880a:    d005        ..      BEQ      0x8818
        0x0000880c:    2000        .       MOV      r0,#0
        0x0000880e:    43c0        .C      MVN      r0,r0
        0x00008810:    b00d        ..      ADD      r13,#0x34
        0x00008812:    bcf0        ..      POP      {r4-r7}
        0x00008814:    bc08        ..      POP      {r3}
        0x00008816:    4718        .G      BX       r3
        0x00008818:    9807        ..      LDR      r0,[r13,#0x1c]
        0x0000881a:    e7f9        ..      B        0x8810
    _printf_display
        0x0000881c:    b5f0        ..      PUSH     {r4-r7,r14}
        0x0000881e:    1c07        ..      MOV      r7,r0
        0x00008820:    1c08        ..      MOV      r0,r1
        0x00008822:    1c14        ..      MOV      r4,r2
        0x00008824:    6812        .h      LDR      r2,[r2,#0]
        0x00008826:    b08f        ..      SUB      r13,#0x3c
        0x00008828:    2500        .%      MOV      r5,#0
        0x0000882a:    43e9        .C      MVN      r1,r5
        0x0000882c:    9204        ..      STR      r2,[r13,#0x10]
        0x0000882e:    60e1        .`      STR      r1,[r4,#0xc]
        0x00008830:    6121        !a      STR      r1,[r4,#0x10]
        0x00008832:    2121        !!      MOV      r1,#0x21
        0x00008834:    0109        ..      LSL      r1,r1,#4
        0x00008836:    2600        .&      MOV      r6,#0
        0x00008838:    400a        .@      AND      r2,r1
        0x0000883a:    d101        ..      BNE      0x8840
        0x0000883c:    2101        .!      MOV      r1,#1
        0x0000883e:    60a1        .`      STR      r1,[r4,#8]
        0x00008840:    a174        t.      ADR      r1,0x8a14
        0x00008842:    2867        g(      CMP      r0,#0x67
        0x00008844:    d00e        ..      BEQ      0x8864
        0x00008846:    dc26        &.      BGT      0x8896
        0x00008848:    2864        d(      CMP      r0,#0x64
        0x0000884a:    d064        d.      BEQ      0x8916
        0x0000884c:    dc06        ..      BGT      0x885c
        0x0000884e:    2845        E(      CMP      r0,#0x45
        0x00008850:    d008        ..      BEQ      0x8864
        0x00008852:    2847        G(      CMP      r0,#0x47
        0x00008854:    d006        ..      BEQ      0x8864
        0x00008856:    2858        X(      CMP      r0,#0x58
        0x00008858:    d109        ..      BNE      0x886e
        0x0000885a:    e036        6.      B        0x88ca
        0x0000885c:    2865        e(      CMP      r0,#0x65
        0x0000885e:    d001        ..      BEQ      0x8864
        0x00008860:    2866        f(      CMP      r0,#0x66
        0x00008862:    d104        ..      BNE      0x886e
        0x00008864:    1c22        ".      MOV      r2,r4
        0x00008866:    a905        ..      ADD      r1,r13,#0x14
    $b
        0x00008868:    f001fa42    ..B.    BL       __16_fp_display_gate  ; 0x9cf0
        0x0000886c:    1c06        ..      MOV      r6,r0
        0x0000886e:    6aa1        .j      LDR      r1,[r4,#0x28]
        0x00008870:    9a04        ..      LDR      r2,[r13,#0x10]
        0x00008872:    9102        ..      STR      r1,[r13,#8]
        0x00008874:    0590        ..      LSL      r0,r2,#22
        0x00008876:    d571        q.      BPL      0x895c
        0x00008878:    2000        .       MOV      r0,#0
        0x0000887a:    9003        ..      STR      r0,[r13,#0xc]
        0x0000887c:    68e0        .h      LDR      r0,[r4,#0xc]
        0x0000887e:    2800        .(      CMP      r0,#0
        0x00008880:    dd01        ..      BLE      0x8886
        0x00008882:    3801        .8      SUB      r0,#1
        0x00008884:    9003        ..      STR      r0,[r13,#0xc]
        0x00008886:    6920         i      LDR      r0,[r4,#0x10]
        0x00008888:    2800        .(      CMP      r0,#0
        0x0000888a:    dd68        h.      BLE      0x895e
        0x0000888c:    9903        ..      LDR      r1,[r13,#0xc]
        0x0000888e:    1840        @.      ADD      r0,r0,r1
        0x00008890:    3801        .8      SUB      r0,#1
        0x00008892:    9003        ..      STR      r0,[r13,#0xc]
        0x00008894:    e063        c.      B        0x895e
        0x00008896:    2870        p(      CMP      r0,#0x70
        0x00008898:    d017        ..      BEQ      0x88ca
        0x0000889a:    dc12        ..      BGT      0x88c2
        0x0000889c:    2869        i(      CMP      r0,#0x69
        0x0000889e:    d03a        :.      BEQ      0x8916
        0x000088a0:    286f        o(      CMP      r0,#0x6f
        0x000088a2:    d1e4        ..      BNE      0x886e
        0x000088a4:    9a04        ..      LDR      r2,[r13,#0x10]
        0x000088a6:    0650        P.      LSL      r0,r2,#25
        0x000088a8:    d55e        ^.      BPL      0x8968
        0x000088aa:    6b20         k      LDR      r0,[r4,#0x30]
        0x000088ac:    6ae2        .j      LDR      r2,[r4,#0x2c]
        0x000088ae:    9003        ..      STR      r0,[r13,#0xc]
        0x000088b0:    a158        X.      ADR      r1,0x8a14
        0x000088b2:    9202        ..      STR      r2,[r13,#8]
        0x000088b4:    c90c        ..      LDMIA    r1!,{r2,r3}
        0x000088b6:    1c01        ..      MOV      r1,r0
        0x000088b8:    9802        ..      LDR      r0,[r13,#8]
    $b
        0x000088ba:    f000fdf7    ....    BL       __16_ll_cmpu  ; 0x94ac
        0x000088be:    d052        R.      BEQ      0x8966
        0x000088c0:    e037        7.      B        0x8932
        0x000088c2:    2875        u(      CMP      r0,#0x75
        0x000088c4:    d027        '.      BEQ      0x8916
        0x000088c6:    2878        x(      CMP      r0,#0x78
        0x000088c8:    d1d1        ..      BNE      0x886e
        0x000088ca:    9a04        ..      LDR      r2,[r13,#0x10]
        0x000088cc:    0650        P.      LSL      r0,r2,#25
        0x000088ce:    d523        #.      BPL      0x8918
        0x000088d0:    6b20         k      LDR      r0,[r4,#0x30]
        0x000088d2:    6ae2        .j      LDR      r2,[r4,#0x2c]
        0x000088d4:    9003        ..      STR      r0,[r13,#0xc]
        0x000088d6:    a14f        O.      ADR      r1,0x8a14
        0x000088d8:    9202        ..      STR      r2,[r13,#8]
        0x000088da:    c90c        ..      LDMIA    r1!,{r2,r3}
        0x000088dc:    1c01        ..      MOV      r1,r0
        0x000088de:    9802        ..      LDR      r0,[r13,#8]
    $b
        0x000088e0:    f000fde4    ....    BL       __16_ll_cmpu  ; 0x94ac
        0x000088e4:    d0c3        ..      BEQ      0x886e
        0x000088e6:    a902        ..      ADD      r1,r13,#8
        0x000088e8:    c903        ..      LDMIA    r1!,{r0,r1}
        0x000088ea:    0700        ..      LSL      r0,r0,#28
        0x000088ec:    6a61        aj      LDR      r1,[r4,#0x24]
        0x000088ee:    0f00        ..      LSR      r0,r0,#28
        0x000088f0:    5c09        .\      LDRB     r1,[r1,r0]
        0x000088f2:    1c30        0.      MOV      r0,r6
        0x000088f4:    aa05        ..      ADD      r2,r13,#0x14
        0x000088f6:    5411        .T      STRB     r1,[r2,r0]
        0x000088f8:    a902        ..      ADD      r1,r13,#8
        0x000088fa:    3601        .6      ADD      r6,#1
        0x000088fc:    2204        ."      MOV      r2,#4
        0x000088fe:    c903        ..      LDMIA    r1!,{r0,r1}
    $b
        0x00008900:    f000fe36    ..6.    BL       __16_ll_ushift_r  ; 0x9570
        0x00008904:    9002        ..      STR      r0,[r13,#8]
        0x00008906:    a043        C.      ADR      r0,0x8a14
        0x00008908:    9103        ..      STR      r1,[r13,#0xc]
        0x0000890a:    c80c        ..      LDMIA    r0!,{r2,r3}
        0x0000890c:    9802        ..      LDR      r0,[r13,#8]
    $b
        0x0000890e:    f000fdcd    ....    BL       __16_ll_cmpu  ; 0x94ac
        0x00008912:    d0ac        ..      BEQ      0x886e
        0x00008914:    e7e7        ..      B        0x88e6
        0x00008916:    e03a        :.      B        0x898e
        0x00008918:    2b00        .+      CMP      r3,#0
        0x0000891a:    d0a8        ..      BEQ      0x886e
        0x0000891c:    aa05        ..      ADD      r2,r13,#0x14
        0x0000891e:    0719        ..      LSL      r1,r3,#28
        0x00008920:    6a60        `j      LDR      r0,[r4,#0x24]
        0x00008922:    0f09        ..      LSR      r1,r1,#28
        0x00008924:    5c41        A\      LDRB     r1,[r0,r1]
        0x00008926:    1c30        0.      MOV      r0,r6
        0x00008928:    3601        .6      ADD      r6,#1
        0x0000892a:    091b        ..      LSR      r3,r3,#4
        0x0000892c:    5411        .T      STRB     r1,[r2,r0]
        0x0000892e:    d09e        ..      BEQ      0x886e
        0x00008930:    e7f5        ..      B        0x891e
        0x00008932:    a902        ..      ADD      r1,r13,#8
        0x00008934:    c903        ..      LDMIA    r1!,{r0,r1}
        0x00008936:    0740        @.      LSL      r0,r0,#29
        0x00008938:    6a61        aj      LDR      r1,[r4,#0x24]
        0x0000893a:    0f40        @.      LSR      r0,r0,#29
        0x0000893c:    5c09        .\      LDRB     r1,[r1,r0]
        0x0000893e:    1c30        0.      MOV      r0,r6
        0x00008940:    aa05        ..      ADD      r2,r13,#0x14
        0x00008942:    5411        .T      STRB     r1,[r2,r0]
        0x00008944:    a902        ..      ADD      r1,r13,#8
        0x00008946:    3601        .6      ADD      r6,#1
        0x00008948:    2203        ."      MOV      r2,#3
        0x0000894a:    c903        ..      LDMIA    r1!,{r0,r1}
    $b
        0x0000894c:    f000fe10    ....    BL       __16_ll_ushift_r  ; 0x9570
        0x00008950:    9002        ..      STR      r0,[r13,#8]
        0x00008952:    a030        0.      ADR      r0,0x8a14
        0x00008954:    9103        ..      STR      r1,[r13,#0xc]
        0x00008956:    c80c        ..      LDMIA    r0!,{r2,r3}
        0x00008958:    9802        ..      LDR      r0,[r13,#8]
        0x0000895a:    e001        ..      B        $b  ; 0x8960
        0x0000895c:    e072        r.      B        0x8a44
        0x0000895e:    e077        w.      B        0x8a50
    $b
        0x00008960:    f000fda4    ....    BL       __16_ll_cmpu  ; 0x94ac
        0x00008964:    d1e5        ..      BNE      0x8932
        0x00008966:    e00a        ..      B        0x897e
        0x00008968:    2b00        .+      CMP      r3,#0
        0x0000896a:    d008        ..      BEQ      0x897e
        0x0000896c:    aa05        ..      ADD      r2,r13,#0x14
        0x0000896e:    0759        Y.      LSL      r1,r3,#29
        0x00008970:    0f49        I.      LSR      r1,r1,#29
        0x00008972:    3130        01      ADD      r1,#0x30
        0x00008974:    1c30        0.      MOV      r0,r6
        0x00008976:    3601        .6      ADD      r6,#1
        0x00008978:    08db        ..      LSR      r3,r3,#3
        0x0000897a:    5411        .T      STRB     r1,[r2,r0]
        0x0000897c:    d1f7        ..      BNE      0x896e
        0x0000897e:    9a04        ..      LDR      r2,[r13,#0x10]
        0x00008980:    0710        ..      LSL      r0,r2,#28
        0x00008982:    d400        ..      BMI      0x8986
        0x00008984:    e773        s.      B        0x886e
        0x00008986:    68a0        .h      LDR      r0,[r4,#8]
        0x00008988:    3801        .8      SUB      r0,#1
        0x0000898a:    60a0        .`      STR      r0,[r4,#8]
        0x0000898c:    e76f        o.      B        0x886e
        0x0000898e:    9a04        ..      LDR      r2,[r13,#0x10]
        0x00008990:    0650        P.      LSL      r0,r2,#25
        0x00008992:    d549        I.      BPL      $t  ; 0x8a28
        0x00008994:    6b20         k      LDR      r0,[r4,#0x30]
        0x00008996:    6ae2        .j      LDR      r2,[r4,#0x2c]
        0x00008998:    9003        ..      STR      r0,[r13,#0xc]
        0x0000899a:    a11e        ..      ADR      r1,0x8a14
        0x0000899c:    9202        ..      STR      r2,[r13,#8]
        0x0000899e:    c90c        ..      LDMIA    r1!,{r2,r3}
        0x000089a0:    1c01        ..      MOV      r1,r0
        0x000089a2:    9802        ..      LDR      r0,[r13,#8]
    $b
        0x000089a4:    f000fd82    ....    BL       __16_ll_cmpu  ; 0x94ac
        0x000089a8:    d0ec        ..      BEQ      0x8984
        0x000089aa:    a902        ..      ADD      r1,r13,#8
        0x000089ac:    c903        ..      LDMIA    r1!,{r0,r1}
    $b
        0x000089ae:    f000fd8d    ....    BL       __16_ll_udiv10  ; 0x94cc
        0x000089b2:    900e        ..      STR      r0,[r13,#0x38]
        0x000089b4:    1c10        ..      MOV      r0,r2
        0x000089b6:    3030        00      ADD      r0,#0x30
        0x000089b8:    910d        ..      STR      r1,[r13,#0x34]
        0x000089ba:    1c01        ..      MOV      r1,r0
        0x000089bc:    1c30        0.      MOV      r0,r6
        0x000089be:    aa05        ..      ADD      r2,r13,#0x14
        0x000089c0:    5411        .T      STRB     r1,[r2,r0]
        0x000089c2:    980e        ..      LDR      r0,[r13,#0x38]
        0x000089c4:    990d        ..      LDR      r1,[r13,#0x34]
        0x000089c6:    9002        ..      STR      r0,[r13,#8]
        0x000089c8:    a012        ..      ADR      r0,0x8a14
        0x000089ca:    9103        ..      STR      r1,[r13,#0xc]
        0x000089cc:    c80c        ..      LDMIA    r0!,{r2,r3}
        0x000089ce:    9802        ..      LDR      r0,[r13,#8]
        0x000089d0:    3601        .6      ADD      r6,#1
    $b
        0x000089d2:    f000fd6b    ..k.    BL       __16_ll_cmpu  ; 0x94ac
        0x000089d6:    d0d5        ..      BEQ      0x8984
        0x000089d8:    e7e7        ..      B        0x89aa
    $d
        0x000089da:    0000        ..      DCW    0
        0x000089dc:    33323130    0123    DCD    858927408
        0x000089e0:    37363534    4567    DCD    926299444
        0x000089e4:    42413938    89AB    DCD    1111570744
        0x000089e8:    46454443    CDEF    DCD    1178944579
        0x000089ec:    00000000    ....    DCD    0
        0x000089f0:    00005830    0X..    DCD    22576
        0x000089f4:    33323130    0123    DCD    858927408
        0x000089f8:    37363534    4567    DCD    926299444
        0x000089fc:    62613938    89ab    DCD    1650538808
        0x00008a00:    66656463    cdef    DCD    1717920867
        0x00008a04:    00000000    ....    DCD    0
        0x00008a08:    00007830    0x..    DCD    30768
        0x00008a0c:    00000040    @...    DCD    64
        0x00008a10:    00000030    0...    DCD    48
        0x00008a14:    00000000    ....    DCD    0
        0x00008a18:    00000000    ....    DCD    0
        0x00008a1c:    0000002d    -...    DCD    45
        0x00008a20:    0000002b    +...    DCD    43
        0x00008a24:    00000020     ...    DCD    32
    $t
        0x00008a28:    2b00        .+      CMP      r3,#0
        0x00008a2a:    d0ab        ..      BEQ      0x8984
        0x00008a2c:    1c18        ..      MOV      r0,r3
    $b
        0x00008a2e:    f000fe49    ..I.    BL       __16__rt_udiv10  ; 0x96c4
        0x00008a32:    3130        01      ADD      r1,#0x30
        0x00008a34:    1c0a        ..      MOV      r2,r1
        0x00008a36:    1c31        1.      MOV      r1,r6
        0x00008a38:    ab05        ..      ADD      r3,r13,#0x14
        0x00008a3a:    545a        ZT      STRB     r2,[r3,r1]
        0x00008a3c:    3601        .6      ADD      r6,#1
        0x00008a3e:    1c03        ..      MOV      r3,r0
        0x00008a40:    d0a0        ..      BEQ      0x8984
        0x00008a42:    e7f3        ..      B        0x8a2c
        0x00008a44:    68a0        .h      LDR      r0,[r4,#8]
        0x00008a46:    1b81        ..      SUB      r1,r0,r6
        0x00008a48:    9103        ..      STR      r1,[r13,#0xc]
        0x00008a4a:    d501        ..      BPL      0x8a50
        0x00008a4c:    2000        .       MOV      r0,#0
        0x00008a4e:    9003        ..      STR      r0,[r13,#0xc]
        0x00008a50:    6860        `h      LDR      r0,[r4,#4]
    $b
        0x00008a52:    f000ff0b    ....    BL       strlen  ; 0x986c
        0x00008a56:    9903        ..      LDR      r1,[r13,#0xc]
        0x00008a58:    9a04        ..      LDR      r2,[r13,#0x10]
        0x00008a5a:    1989        ..      ADD      r1,r1,r6
        0x00008a5c:    1840        @.      ADD      r0,r0,r1
        0x00008a5e:    9902        ..      LDR      r1,[r13,#8]
        0x00008a60:    1a08        ..      SUB      r0,r1,r0
        0x00008a62:    9002        ..      STR      r0,[r13,#8]
        0x00008a64:    05d0        ..      LSL      r0,r2,#23
        0x00008a66:    d412        ..      BMI      0x8a8e
        0x00008a68:    9a04        ..      LDR      r2,[r13,#0x10]
        0x00008a6a:    07d0        ..      LSL      r0,r2,#31
        0x00008a6c:    d40f        ..      BMI      0x8a8e
        0x00008a6e:    2020                MOV      r0,#0x20
        0x00008a70:    9001        ..      STR      r0,[r13,#4]
        0x00008a72:    9802        ..      LDR      r0,[r13,#8]
        0x00008a74:    3801        .8      SUB      r0,#1
        0x00008a76:    9002        ..      STR      r0,[r13,#8]
        0x00008a78:    d409        ..      BMI      0x8a8e
        0x00008a7a:    3501        .5      ADD      r5,#1
        0x00008a7c:    69e2        .i      LDR      r2,[r4,#0x1c]
        0x00008a7e:    9801        ..      LDR      r0,[r13,#4]
        0x00008a80:    1c39        9.      MOV      r1,r7
    $b
        0x00008a82:    f000fb07    ....    BL       __call_via_r2  ; 0x9094
        0x00008a86:    9802        ..      LDR      r0,[r13,#8]
        0x00008a88:    3801        .8      SUB      r0,#1
        0x00008a8a:    9002        ..      STR      r0,[r13,#8]
        0x00008a8c:    d5f5        ..      BPL      0x8a7a
        0x00008a8e:    6861        ah      LDR      r1,[r4,#4]
        0x00008a90:    7808        .x      LDRB     r0,[r1,#0]
        0x00008a92:    3101        .1      ADD      r1,#1
        0x00008a94:    9101        ..      STR      r1,[r13,#4]
        0x00008a96:    2800        .(      CMP      r0,#0
        0x00008a98:    d00a        ..      BEQ      0x8ab0
        0x00008a9a:    1c39        9.      MOV      r1,r7
        0x00008a9c:    69e2        .i      LDR      r2,[r4,#0x1c]
    $b
        0x00008a9e:    f000faf9    ....    BL       __call_via_r2  ; 0x9094
        0x00008aa2:    9901        ..      LDR      r1,[r13,#4]
        0x00008aa4:    3501        .5      ADD      r5,#1
        0x00008aa6:    7808        .x      LDRB     r0,[r1,#0]
        0x00008aa8:    3101        .1      ADD      r1,#1
        0x00008aaa:    9101        ..      STR      r1,[r13,#4]
        0x00008aac:    2800        .(      CMP      r0,#0
        0x00008aae:    d1f4        ..      BNE      0x8a9a
        0x00008ab0:    9a04        ..      LDR      r2,[r13,#0x10]
        0x00008ab2:    07d0        ..      LSL      r0,r2,#31
        0x00008ab4:    d415        ..      BMI      0x8ae2
        0x00008ab6:    9a04        ..      LDR      r2,[r13,#0x10]
        0x00008ab8:    2030        0       MOV      r0,#0x30
        0x00008aba:    05d1        ..      LSL      r1,r2,#23
        0x00008abc:    d400        ..      BMI      0x8ac0
        0x00008abe:    2020                MOV      r0,#0x20
        0x00008ac0:    0600        ..      LSL      r0,r0,#24
        0x00008ac2:    0e00        ..      LSR      r0,r0,#24
        0x00008ac4:    9001        ..      STR      r0,[r13,#4]
        0x00008ac6:    9802        ..      LDR      r0,[r13,#8]
        0x00008ac8:    3801        .8      SUB      r0,#1
        0x00008aca:    9002        ..      STR      r0,[r13,#8]
        0x00008acc:    d409        ..      BMI      0x8ae2
        0x00008ace:    3501        .5      ADD      r5,#1
        0x00008ad0:    69e2        .i      LDR      r2,[r4,#0x1c]
        0x00008ad2:    9801        ..      LDR      r0,[r13,#4]
        0x00008ad4:    1c39        9.      MOV      r1,r7
    $b
        0x00008ad6:    f000fadd    ....    BL       __call_via_r2  ; 0x9094
        0x00008ada:    9802        ..      LDR      r0,[r13,#8]
        0x00008adc:    3801        .8      SUB      r0,#1
        0x00008ade:    9002        ..      STR      r0,[r13,#8]
        0x00008ae0:    d5f5        ..      BPL      0x8ace
        0x00008ae2:    9a04        ..      LDR      r2,[r13,#0x10]
        0x00008ae4:    0590        ..      LSL      r0,r2,#22
        0x00008ae6:    d534        4.      BPL      0x8b52
        0x00008ae8:    2100        .!      MOV      r1,#0
        0x00008aea:    9101        ..      STR      r1,[r13,#4]
        0x00008aec:    2e00        ..      CMP      r6,#0
        0x00008aee:    dd4d        M.      BLE      0x8b8c
        0x00008af0:    9901        ..      LDR      r1,[r13,#4]
        0x00008af2:    a805        ..      ADD      r0,r13,#0x14
        0x00008af4:    5c40        @\      LDRB     r0,[r0,r1]
        0x00008af6:    283c        <(      CMP      r0,#0x3c
        0x00008af8:    d006        ..      BEQ      0x8b08
        0x00008afa:    283e        >(      CMP      r0,#0x3e
        0x00008afc:    d11e        ..      BNE      0x8b3c
        0x00008afe:    6920         i      LDR      r0,[r4,#0x10]
        0x00008b00:    3801        .8      SUB      r0,#1
        0x00008b02:    6120         a      STR      r0,[r4,#0x10]
        0x00008b04:    d41f        ..      BMI      0x8b46
        0x00008b06:    e00e        ..      B        0x8b26
        0x00008b08:    68e0        .h      LDR      r0,[r4,#0xc]
        0x00008b0a:    3801        .8      SUB      r0,#1
        0x00008b0c:    60e0        .`      STR      r0,[r4,#0xc]
        0x00008b0e:    d41a        ..      BMI      0x8b46
        0x00008b10:    3501        .5      ADD      r5,#1
        0x00008b12:    1c39        9.      MOV      r1,r7
        0x00008b14:    2030        0       MOV      r0,#0x30
        0x00008b16:    69e2        .i      LDR      r2,[r4,#0x1c]
    $b
        0x00008b18:    f000fabc    ....    BL       __call_via_r2  ; 0x9094
        0x00008b1c:    68e0        .h      LDR      r0,[r4,#0xc]
        0x00008b1e:    3801        .8      SUB      r0,#1
        0x00008b20:    60e0        .`      STR      r0,[r4,#0xc]
        0x00008b22:    d5f5        ..      BPL      0x8b10
        0x00008b24:    e00f        ..      B        0x8b46
        0x00008b26:    3501        .5      ADD      r5,#1
        0x00008b28:    1c39        9.      MOV      r1,r7
        0x00008b2a:    2030        0       MOV      r0,#0x30
        0x00008b2c:    69e2        .i      LDR      r2,[r4,#0x1c]
    $b
        0x00008b2e:    f000fab1    ....    BL       __call_via_r2  ; 0x9094
        0x00008b32:    6920         i      LDR      r0,[r4,#0x10]
        0x00008b34:    3801        .8      SUB      r0,#1
        0x00008b36:    6120         a      STR      r0,[r4,#0x10]
        0x00008b38:    d5f5        ..      BPL      0x8b26
        0x00008b3a:    e004        ..      B        0x8b46
        0x00008b3c:    1c39        9.      MOV      r1,r7
        0x00008b3e:    69e2        .i      LDR      r2,[r4,#0x1c]
    $b
        0x00008b40:    f000faa8    ....    BL       __call_via_r2  ; 0x9094
        0x00008b44:    3501        .5      ADD      r5,#1
        0x00008b46:    9901        ..      LDR      r1,[r13,#4]
        0x00008b48:    3101        .1      ADD      r1,#1
        0x00008b4a:    9101        ..      STR      r1,[r13,#4]
        0x00008b4c:    42b1        .B      CMP      r1,r6
        0x00008b4e:    dbcf        ..      BLT      0x8af0
        0x00008b50:    e01c        ..      B        0x8b8c
        0x00008b52:    9803        ..      LDR      r0,[r13,#0xc]
        0x00008b54:    3801        .8      SUB      r0,#1
        0x00008b56:    9003        ..      STR      r0,[r13,#0xc]
        0x00008b58:    d409        ..      BMI      0x8b6e
        0x00008b5a:    3501        .5      ADD      r5,#1
        0x00008b5c:    1c39        9.      MOV      r1,r7
        0x00008b5e:    2030        0       MOV      r0,#0x30
        0x00008b60:    69e2        .i      LDR      r2,[r4,#0x1c]
    $b
        0x00008b62:    f000fa97    ....    BL       __call_via_r2  ; 0x9094
        0x00008b66:    9803        ..      LDR      r0,[r13,#0xc]
        0x00008b68:    3801        .8      SUB      r0,#1
        0x00008b6a:    9003        ..      STR      r0,[r13,#0xc]
        0x00008b6c:    d5f5        ..      BPL      0x8b5a
        0x00008b6e:    19ad        ..      ADD      r5,r5,r6
        0x00008b70:    1c30        0.      MOV      r0,r6
        0x00008b72:    3e01        .>      SUB      r6,#1
        0x00008b74:    2800        .(      CMP      r0,#0
        0x00008b76:    dd09        ..      BLE      0x8b8c
        0x00008b78:    a805        ..      ADD      r0,r13,#0x14
        0x00008b7a:    5d80        .]      LDRB     r0,[r0,r6]
        0x00008b7c:    69e2        .i      LDR      r2,[r4,#0x1c]
        0x00008b7e:    1c39        9.      MOV      r1,r7
    $b
        0x00008b80:    f000fa88    ....    BL       __call_via_r2  ; 0x9094
        0x00008b84:    1c30        0.      MOV      r0,r6
        0x00008b86:    3e01        .>      SUB      r6,#1
        0x00008b88:    2800        .(      CMP      r0,#0
        0x00008b8a:    dcf5        ..      BGT      0x8b78
        0x00008b8c:    9a04        ..      LDR      r2,[r13,#0x10]
        0x00008b8e:    07d0        ..      LSL      r0,r2,#31
        0x00008b90:    d50a        ..      BPL      0x8ba8
        0x00008b92:    9e02        ..      LDR      r6,[r13,#8]
        0x00008b94:    3e01        .>      SUB      r6,#1
        0x00008b96:    d407        ..      BMI      0x8ba8
        0x00008b98:    3501        .5      ADD      r5,#1
        0x00008b9a:    1c39        9.      MOV      r1,r7
        0x00008b9c:    2020                MOV      r0,#0x20
        0x00008b9e:    69e2        .i      LDR      r2,[r4,#0x1c]
    $b
        0x00008ba0:    f000fa78    ..x.    BL       __call_via_r2  ; 0x9094
        0x00008ba4:    3e01        .>      SUB      r6,#1
        0x00008ba6:    d5f7        ..      BPL      0x8b98
        0x00008ba8:    1c28        (.      MOV      r0,r5
        0x00008baa:    b00f        ..      ADD      r13,#0x3c
        0x00008bac:    bcf0        ..      POP      {r4-r7}
        0x00008bae:    bc08        ..      POP      {r3}
        0x00008bb0:    4718        .G      BX       r3
    $d
        0x00008bb2:    0000        ..      DCW    0
    _sputc
    $t
    .text
        0x00008bb4:    0600        ..      LSL      r0,r0,#24
        0x00008bb6:    680a        .h      LDR      r2,[r1,#0]
        0x00008bb8:    0e00        ..      LSR      r0,r0,#24
        0x00008bba:    7010        .p      STRB     r0,[r2,#0]
        0x00008bbc:    3201        .2      ADD      r2,#1
        0x00008bbe:    600a        .`      STR      r2,[r1,#0]
        0x00008bc0:    4770        pG      BX       r14
    _serror
        0x00008bc2:    2000        .       MOV      r0,#0
        0x00008bc4:    4770        pG      BX       r14
    $d
        0x00008bc6:    0000        ..      DCW    0
    ferror
    $t
    .text
        0x00008bc8:    68c0        .h      LDR      r0,[r0,#0xc]
        0x00008bca:    2180        .!      MOV      r1,#0x80
        0x00008bcc:    4008        .@      AND      r0,r1
        0x00008bce:    4770        pG      BX       r14
    fputc
    .text
        0x00008bd0:    b508        ..      PUSH     {r3,r14}
        0x00008bd2:    688a        .h      LDR      r2,[r1,#8]
        0x00008bd4:    2a00        .*      CMP      r2,#0
        0x00008bd6:    dc04        ..      BGT      0x8be2
    $b
        0x00008bd8:    f000faae    ....    BL       __flsbuf  ; 0x9138
        0x00008bdc:    b001        ..      ADD      r13,#4
        0x00008bde:    bc08        ..      POP      {r3}
        0x00008be0:    4718        .G      BX       r3
        0x00008be2:    3a01        .:      SUB      r2,#1
        0x00008be4:    608a        .`      STR      r2,[r1,#8]
        0x00008be6:    684a        Jh      LDR      r2,[r1,#4]
        0x00008be8:    0600        ..      LSL      r0,r0,#24
        0x00008bea:    0e00        ..      LSR      r0,r0,#24
        0x00008bec:    1c53        S.      ADD      r3,r2,#1
        0x00008bee:    604b        K`      STR      r3,[r1,#4]
        0x00008bf0:    7010        .p      STRB     r0,[r2,#0]
        0x00008bf2:    e7f3        ..      B        0x8bdc
    __rt_entry
    $a
    .text
        0x00008bf4:    eb0002da    ....    BL       __rt_stackheap_init  ; 0x9764
        0x00008bf8:    eb000429    )...    BL       $Ven$AT$L$$__rt_lib_init  ; 0x9ca4
        0x00008bfc:    e59fc01c    ....    LDR      r12,0x8c20
    mainaddruse
        0x00008c00:    e08cc00f    ....    ADD      r12,r12,pc
        0x00008c04:    e31c0001    ....    TST      r12,#1
        0x00008c08:    128fe00d    ....    ADDNE    r14,pc,#0xd ; #0x8c1d
        0x00008c0c:    01a0e00f    ....    MOVEQ    r14,pc
        0x00008c10:    e12fff1c    ../.    BX       r12
        0x00008c14:    e28fc001    ....    ADD      r12,pc,#1 ; #0x8c1d
        0x00008c18:    e12fff1c    ../.    BX       r12
    thumbmainreturn
    $b
    $t
        0x00008c1c:    f000fa40    ..@.    BL       exit  ; 0x90a0
    mainaddr
    $d
    $f
        0x00008c20:    fffff525    %...    DCD    4294964517
    __rt_exit
    $t
        0x00008c24:    4778        xG      BX       pc
    $d
        0x00008c26:    0000        ..      DCW    0
    __32__rt_exit
    $a
        0x00008c28:    e92d4001    .@-.    STMFD    r13!,{r0,r14}
        0x00008c2c:    eb00041f    ....    BL       $Ven$AT$L$$__rt_lib_shutdown  ; 0x9cb0
        0x00008c30:    e8bd4001    .@..    LDMFD    r13!,{r0,r14}
        0x00008c34:    ea000001    ....    B        __rt_abort1  ; 0x8c40
    __rt_abort
    $t
        0x00008c38:    4778        xG      BX       pc
    $d
        0x00008c3a:    0000        ..      DCW    0
    __32__rt_abort
    $a
        0x00008c3c:    e3e00000    ....    MVN      r0,#0
    __rt_abort1
        0x00008c40:    ea00031d    ....    B        _sys_exit  ; 0x98bc
    __16__rt_memcpy_w
    $t
    .text
        0x00008c44:    4778        xG      BX       pc
    $d
        0x00008c46:    0000        ..      DCW    0
    __rt_memcpy_w
    $a
        0x00008c48:    e92d4010    .@-.    STMFD    r13!,{r4,r14}
        0x00008c4c:    e2522020      R.    SUBS     r2,r2,#0x20
        0x00008c50:    3a000005    ...:    BCC      _memcpy_small  ; 0x8c6c
    _memcpy_aligned_loop
        0x00008c54:    28b15018    .P.(    LDMCSIA  r1!,{r3,r4,r12,r14}
        0x00008c58:    28a05018    .P.(    STMCSIA  r0!,{r3,r4,r12,r14}
        0x00008c5c:    28b15018    .P.(    LDMCSIA  r1!,{r3,r4,r12,r14}
        0x00008c60:    28a05018    .P.(    STMCSIA  r0!,{r3,r4,r12,r14}
        0x00008c64:    22522020      R"    SUBCSS   r2,r2,#0x20
        0x00008c68:    2afffff9    ...*    BCS      _memcpy_aligned_loop  ; 0x8c54
    _memcpy_small
        0x00008c6c:    e1b0ce02    ....    MOVS     r12,r2,LSL #28
        0x00008c70:    28b15018    .P.(    LDMCSIA  r1!,{r3,r4,r12,r14}
        0x00008c74:    28a05018    .P.(    STMCSIA  r0!,{r3,r4,r12,r14}
        0x00008c78:    48b10018    ...H    LDMMIIA  r1!,{r3,r4}
        0x00008c7c:    48a00018    ...H    STMMIIA  r0!,{r3,r4}
        0x00008c80:    e8bd4010    .@..    LDMFD    r13!,{r4,r14}
        0x00008c84:    e1b0cf02    ....    MOVS     r12,r2,LSL #30
        0x00008c88:    24913004    .0.$    LDRCS    r3,[r1],#4
        0x00008c8c:    24803004    .0.$    STRCS    r3,[r0],#4
        0x00008c90:    012fff1e    ../.    BXEQ     r14
    _memcpy_lastbytes
        0x00008c94:    e1b02f82    ./..    MOVS     r2,r2,LSL #31
        0x00008c98:    44d12001    . .D    LDRMIB   r2,[r1],#1
        0x00008c9c:    24d13001    .0.$    LDRCSB   r3,[r1],#1
        0x00008ca0:    24d1c001    ...$    LDRCSB   r12,[r1],#1
        0x00008ca4:    44c02001    . .D    STRMIB   r2,[r0],#1
        0x00008ca8:    24c03001    .0.$    STRCSB   r3,[r0],#1
        0x00008cac:    24c0c001    ...$    STRCSB   r12,[r0],#1
        0x00008cb0:    e12fff1e    ../.    BX       r14
    _seterr
    $t
    .text
        0x00008cb4:    68c1        .h      LDR      r1,[r0,#0xc]
        0x00008cb6:    2280        ."      MOV      r2,#0x80
        0x00008cb8:    4311        .C      ORR      r1,r2
        0x00008cba:    0392        ..      LSL      r2,r2,#14
        0x00008cbc:    4391        .C      BIC      r1,r2
        0x00008cbe:    60c1        .`      STR      r1,[r0,#0xc]
        0x00008cc0:    2100        .!      MOV      r1,#0
        0x00008cc2:    6081        .`      STR      r1,[r0,#8]
        0x00008cc4:    6001        .`      STR      r1,[r0,#0]
        0x00008cc6:    4770        pG      BX       r14
    _writebuf
        0x00008cc8:    b5e0        ..      PUSH     {r5-r7,r14}
        0x00008cca:    b417        ..      PUSH     {r0-r2,r4}
        0x00008ccc:    68d5        .h      LDR      r5,[r2,#0xc]
        0x00008cce:    1c0f        ..      MOV      r7,r1
        0x00008cd0:    49a0        .I      LDR      r1,0x8f54
        0x00008cd2:    1c14        ..      MOV      r4,r2
        0x00008cd4:    1c28        (.      MOV      r0,r5
        0x00008cd6:    4008        .@      AND      r0,r1
        0x00008cd8:    6956        Vi      LDR      r6,[r2,#0x14]
        0x00008cda:    d016        ..      BEQ      0x8d0a
        0x00008cdc:    1c30        0.      MOV      r0,r6
        0x00008cde:    69a1        .i      LDR      r1,[r4,#0x18]
    $b
        0x00008ce0:    f000fe2c    ..,.    BL       _sys_seek  ; 0x993c
        0x00008ce4:    2800        .(      CMP      r0,#0
        0x00008ce6:    da0d        ..      BGE      0x8d04
        0x00008ce8:    68e0        .h      LDR      r0,[r4,#0xc]
        0x00008cea:    2180        .!      MOV      r1,#0x80
        0x00008cec:    4308        .C      ORR      r0,r1
        0x00008cee:    0389        ..      LSL      r1,r1,#14
        0x00008cf0:    4388        .C      BIC      r0,r1
        0x00008cf2:    60e0        .`      STR      r0,[r4,#0xc]
        0x00008cf4:    2000        .       MOV      r0,#0
        0x00008cf6:    60a0        .`      STR      r0,[r4,#8]
        0x00008cf8:    6020         `      STR      r0,[r4,#0]
        0x00008cfa:    43c0        .C      MVN      r0,r0
        0x00008cfc:    b003        ..      ADD      r13,#0xc
        0x00008cfe:    bcf0        ..      POP      {r4-r7}
        0x00008d00:    bc08        ..      POP      {r3}
        0x00008d02:    4718        .G      BX       r3
        0x00008d04:    4894        .H      LDR      r0,0x8f58
        0x00008d06:    4005        .@      AND      r5,r0
        0x00008d08:    60e5        .`      STR      r5,[r4,#0xc]
        0x00008d0a:    1c2b        +.      MOV      r3,r5
        0x00008d0c:    1c3a        :.      MOV      r2,r7
        0x00008d0e:    1c30        0.      MOV      r0,r6
        0x00008d10:    9900        ..      LDR      r1,[r13,#0]
    $b
        0x00008d12:    f000fdf4    ....    BL       _sys_write  ; 0x98fe
        0x00008d16:    2201        ."      MOV      r2,#1
        0x00008d18:    68e1        .h      LDR      r1,[r4,#0xc]
        0x00008d1a:    0492        ..      LSL      r2,r2,#18
        0x00008d1c:    4311        .C      ORR      r1,r2
        0x00008d1e:    60e1        .`      STR      r1,[r4,#0xc]
        0x00008d20:    0043        C.      LSL      r3,r0,#1
        0x00008d22:    085b        [.      LSR      r3,r3,#1
        0x00008d24:    69a2        .i      LDR      r2,[r4,#0x18]
        0x00008d26:    1afb        ..      SUB      r3,r7,r3
        0x00008d28:    18d2        ..      ADD      r2,r2,r3
        0x00008d2a:    61a2        .a      STR      r2,[r4,#0x18]
        0x00008d2c:    2800        .(      CMP      r0,#0
        0x00008d2e:    d00a        ..      BEQ      0x8d46
        0x00008d30:    2080        .       MOV      r0,#0x80
        0x00008d32:    4308        .C      ORR      r0,r1
        0x00008d34:    2101        .!      MOV      r1,#1
        0x00008d36:    0549        I.      LSL      r1,r1,#21
        0x00008d38:    4388        .C      BIC      r0,r1
        0x00008d3a:    60e0        .`      STR      r0,[r4,#0xc]
        0x00008d3c:    2000        .       MOV      r0,#0
        0x00008d3e:    60a0        .`      STR      r0,[r4,#8]
        0x00008d40:    6020         `      STR      r0,[r4,#0]
        0x00008d42:    43c0        .C      MVN      r0,r0
        0x00008d44:    e7da        ..      B        0x8cfc
        0x00008d46:    2000        .       MOV      r0,#0
        0x00008d48:    e7d8        ..      B        0x8cfc
    _flushlinebuffered
        0x00008d4a:    b538        8.      PUSH     {r3-r5,r14}
        0x00008d4c:    4d84        .M      LDR      r5,0x8f60
        0x00008d4e:    4c83        .L      LDR      r4,0x8f5c
        0x00008d50:    68e1        .h      LDR      r1,[r4,#0xc]
        0x00008d52:    1c28        (.      MOV      r0,r5
        0x00008d54:    4388        .C      BIC      r0,r1
        0x00008d56:    d102        ..      BNE      0x8d5e
        0x00008d58:    1c20         .      MOV      r0,r4
    $b
        0x00008d5a:    f000f9ab    ....    BL       fflush  ; 0x90b4
        0x00008d5e:    6c24        $l      LDR      r4,[r4,#0x40]
        0x00008d60:    2c00        .,      CMP      r4,#0
        0x00008d62:    d1f5        ..      BNE      0x8d50
        0x00008d64:    bc38        8.      POP      {r3-r5}
        0x00008d66:    bc08        ..      POP      {r3}
        0x00008d68:    4718        .G      BX       r3
    _fflush
        0x00008d6a:    b570        p.      PUSH     {r4-r6,r14}
        0x00008d6c:    6905        .i      LDR      r5,[r0,#0x10]
        0x00008d6e:    1c04        ..      MOV      r4,r0
        0x00008d70:    6ac0        .j      LDR      r0,[r0,#0x2c]
        0x00008d72:    6861        ah      LDR      r1,[r4,#4]
        0x00008d74:    4288        .B      CMP      r0,r1
        0x00008d76:    d800        ..      BHI      0x8d7a
        0x00008d78:    1c08        ..      MOV      r0,r1
        0x00008d7a:    1c01        ..      MOV      r1,r0
        0x00008d7c:    68e0        .h      LDR      r0,[r4,#0xc]
        0x00008d7e:    2205        ."      MOV      r2,#5
        0x00008d80:    04d2        ..      LSL      r2,r2,#19
        0x00008d82:    4390        .C      BIC      r0,r2
        0x00008d84:    0782        ..      LSL      r2,r0,#30
        0x00008d86:    0f92        ..      LSR      r2,r2,#30
        0x00008d88:    2a01        .*      CMP      r2,#1
        0x00008d8a:    60e0        .`      STR      r0,[r4,#0xc]
        0x00008d8c:    d103        ..      BNE      0x8d96
        0x00008d8e:    2000        .       MOV      r0,#0
        0x00008d90:    bc70        p.      POP      {r4-r6}
        0x00008d92:    bc08        ..      POP      {r3}
        0x00008d94:    4718        .G      BX       r3
        0x00008d96:    2382        .#      MOV      r3,#0x82
        0x00008d98:    1c02        ..      MOV      r2,r0
        0x00008d9a:    2600        .&      MOV      r6,#0
        0x00008d9c:    43f6        .C      MVN      r6,r6
        0x00008d9e:    401a        .@      AND      r2,r3
        0x00008da0:    2a02        .*      CMP      r2,#2
        0x00008da2:    d001        ..      BEQ      0x8da8
        0x00008da4:    1c30        0.      MOV      r0,r6
        0x00008da6:    e7f3        ..      B        0x8d90
        0x00008da8:    03c0        ..      LSL      r0,r0,#15
        0x00008daa:    d513        ..      BPL      0x8dd4
        0x00008dac:    42a9        .B      CMP      r1,r5
        0x00008dae:    d008        ..      BEQ      0x8dc2
        0x00008db0:    1b49        I.      SUB      r1,r1,r5
        0x00008db2:    1c22        ".      MOV      r2,r4
        0x00008db4:    1c28        (.      MOV      r0,r5
    $b
        0x00008db6:    f7ffff87    ....    BL       _writebuf  ; 0x8cc8
        0x00008dba:    2800        .(      CMP      r0,#0
        0x00008dbc:    d001        ..      BEQ      0x8dc2
        0x00008dbe:    1c30        0.      MOV      r0,r6
        0x00008dc0:    e7e6        ..      B        0x8d90
        0x00008dc2:    62e5        .b      STR      r5,[r4,#0x2c]
        0x00008dc4:    2000        .       MOV      r0,#0
        0x00008dc6:    60a0        .`      STR      r0,[r4,#8]
        0x00008dc8:    6065        e`      STR      r5,[r4,#4]
        0x00008dca:    68e0        .h      LDR      r0,[r4,#0xc]
        0x00008dcc:    2101        .!      MOV      r1,#1
        0x00008dce:    0409        ..      LSL      r1,r1,#16
        0x00008dd0:    4388        .C      BIC      r0,r1
        0x00008dd2:    60e0        .`      STR      r0,[r4,#0xc]
        0x00008dd4:    2000        .       MOV      r0,#0
        0x00008dd6:    e7db        ..      B        0x8d90
    _deferredlazyseek
        0x00008dd8:    b510        ..      PUSH     {r4,r14}
        0x00008dda:    1c04        ..      MOV      r4,r0
        0x00008ddc:    68c0        .h      LDR      r0,[r0,#0xc]
        0x00008dde:    2120         !      MOV      r1,#0x20
        0x00008de0:    4388        .C      BIC      r0,r1
        0x00008de2:    60e0        .`      STR      r0,[r4,#0xc]
        0x00008de4:    69a0        .i      LDR      r0,[r4,#0x18]
        0x00008de6:    6aa1        .j      LDR      r1,[r4,#0x28]
        0x00008de8:    4288        .B      CMP      r0,r1
        0x00008dea:    d00e        ..      BEQ      0x8e0a
        0x00008dec:    1c20         .      MOV      r0,r4
    $b
        0x00008dee:    f7ffffbc    ....    BL       _fflush  ; 0x8d6a
        0x00008df2:    2103        .!      MOV      r1,#3
        0x00008df4:    68e0        .h      LDR      r0,[r4,#0xc]
        0x00008df6:    0309        ..      LSL      r1,r1,#12
        0x00008df8:    4388        .C      BIC      r0,r1
        0x00008dfa:    2110        .!      MOV      r1,#0x10
        0x00008dfc:    4308        .C      ORR      r0,r1
        0x00008dfe:    60e0        .`      STR      r0,[r4,#0xc]
        0x00008e00:    6aa0        .j      LDR      r0,[r4,#0x28]
        0x00008e02:    61a0        .a      STR      r0,[r4,#0x18]
        0x00008e04:    6920         i      LDR      r0,[r4,#0x10]
        0x00008e06:    62e0        .b      STR      r0,[r4,#0x2c]
        0x00008e08:    6060        ``      STR      r0,[r4,#4]
        0x00008e0a:    4956        VI      LDR      r1,0x8f64
        0x00008e0c:    68e0        .h      LDR      r0,[r4,#0xc]
        0x00008e0e:    4008        .@      AND      r0,r1
        0x00008e10:    60e0        .`      STR      r0,[r4,#0xc]
        0x00008e12:    bc10        ..      POP      {r4}
        0x00008e14:    bc08        ..      POP      {r3}
        0x00008e16:    4718        .G      BX       r3
    fclose
        0x00008e18:    b5c0        ..      PUSH     {r6,r7,r14}
        0x00008e1a:    b438        8.      PUSH     {r3-r5}
        0x00008e1c:    1c04        ..      MOV      r4,r0
        0x00008e1e:    6940        @i      LDR      r0,[r0,#0x14]
        0x00008e20:    2600        .&      MOV      r6,#0
        0x00008e22:    9000        ..      STR      r0,[r13,#0]
        0x00008e24:    68e5        .h      LDR      r5,[r4,#0xc]
        0x00008e26:    6927        'i      LDR      r7,[r4,#0x10]
        0x00008e28:    07a8        ..      LSL      r0,r5,#30
        0x00008e2a:    d103        ..      BNE      0x8e34
        0x00008e2c:    43c0        .C      MVN      r0,r0
        0x00008e2e:    bcf8        ..      POP      {r3-r7}
        0x00008e30:    bc08        ..      POP      {r3}
        0x00008e32:    4718        .G      BX       r3
        0x00008e34:    0728        (.      LSL      r0,r5,#28
        0x00008e36:    d419        ..      BMI      0x8e6c
        0x00008e38:    1c20         .      MOV      r0,r4
    $b
        0x00008e3a:    f000f93b    ..;.    BL       fflush  ; 0x90b4
        0x00008e3e:    9800        ..      LDR      r0,[r13,#0]
    $b
        0x00008e40:    f000fd55    ..U.    BL       _sys_close  ; 0x98ee
        0x00008e44:    2800        .(      CMP      r0,#0
        0x00008e46:    da02        ..      BGE      0x8e4e
        0x00008e48:    2000        .       MOV      r0,#0
        0x00008e4a:    43c0        .C      MVN      r0,r0
        0x00008e4c:    e7ef        ..      B        0x8e2e
        0x00008e4e:    0528        (.      LSL      r0,r5,#20
        0x00008e50:    d502        ..      BPL      0x8e58
        0x00008e52:    1c38        8.      MOV      r0,r7
    $b
        0x00008e54:    f000fa32    ..2.    BL       free  ; 0x92bc
        0x00008e58:    0de8        ..      LSR      r0,r5,#23
        0x00008e5a:    4943        CI      LDR      r1,0x8f68
        0x00008e5c:    05c0        ..      LSL      r0,r0,#23
        0x00008e5e:    4288        .B      CMP      r0,r1
        0x00008e60:    d104        ..      BNE      0x8e6c
        0x00008e62:    1c21        !.      MOV      r1,r4
        0x00008e64:    1c30        0.      MOV      r0,r6
    $b
        0x00008e66:    f000f800    ....    BL       0x8e6a
        0x00008e6a:    1c06        ..      MOV      r6,r0
        0x00008e6c:    2140        @!      MOV      r1,#0x40
        0x00008e6e:    1c20         .      MOV      r0,r4
    $b
        0x00008e70:    f000fbea    ....    BL       __16__rt_memclr_w  ; 0x9648
        0x00008e74:    1c30        0.      MOV      r0,r6
        0x00008e76:    e7da        ..      B        0x8e2e
    freopen
        0x00008e78:    b5e0        ..      PUSH     {r5-r7,r14}
        0x00008e7a:    b417        ..      PUSH     {r0-r2,r4}
        0x00008e7c:    1c0c        ..      MOV      r4,r1
        0x00008e7e:    1c16        ..      MOV      r6,r2
        0x00008e80:    1c10        ..      MOV      r0,r2
    $b
        0x00008e82:    f7ffffc9    ....    BL       fclose  ; 0x8e18
        0x00008e86:    7821        !x      LDRB     r1,[r4,#0]
        0x00008e88:    1c60        `.      ADD      r0,r4,#1
        0x00008e8a:    2961        a)      CMP      r1,#0x61
        0x00008e8c:    d00e        ..      BEQ      0x8eac
        0x00008e8e:    2972        r)      CMP      r1,#0x72
        0x00008e90:    d006        ..      BEQ      0x8ea0
        0x00008e92:    2977        w)      CMP      r1,#0x77
        0x00008e94:    d007        ..      BEQ      0x8ea6
        0x00008e96:    2000        .       MOV      r0,#0
        0x00008e98:    b003        ..      ADD      r13,#0xc
        0x00008e9a:    bcf0        ..      POP      {r4-r7}
        0x00008e9c:    bc08        ..      POP      {r3}
        0x00008e9e:    4718        .G      BX       r3
        0x00008ea0:    2501        .%      MOV      r5,#1
        0x00008ea2:    2400        .$      MOV      r4,#0
        0x00008ea4:    e004        ..      B        0x8eb0
        0x00008ea6:    2502        .%      MOV      r5,#2
        0x00008ea8:    2404        .$      MOV      r4,#4
        0x00008eaa:    e001        ..      B        0x8eb0
        0x00008eac:    4d2f        /M      LDR      r5,0x8f6c
        0x00008eae:    2408        .$      MOV      r4,#8
        0x00008eb0:    2202        ."      MOV      r2,#2
        0x00008eb2:    2304        .#      MOV      r3,#4
        0x00008eb4:    2701        .'      MOV      r7,#1
        0x00008eb6:    7801        .x      LDRB     r1,[r0,#0]
        0x00008eb8:    3001        .0      ADD      r0,#1
        0x00008eba:    292b        +)      CMP      r1,#0x2b
        0x00008ebc:    d004        ..      BEQ      0x8ec8
        0x00008ebe:    2962        b)      CMP      r1,#0x62
        0x00008ec0:    d106        ..      BNE      0x8ed0
        0x00008ec2:    431d        .C      ORR      r5,r3
        0x00008ec4:    433c        <C      ORR      r4,r7
        0x00008ec6:    e7f6        ..      B        0x8eb6
        0x00008ec8:    2103        .!      MOV      r1,#3
        0x00008eca:    430d        .C      ORR      r5,r1
        0x00008ecc:    4314        .C      ORR      r4,r2
        0x00008ece:    e7f2        ..      B        0x8eb6
        0x00008ed0:    3810        .8      SUB      r0,#0x10
        0x00008ed2:    7bc0        .{      LDRB     r0,[r0,#0xf]
        0x00008ed4:    2874        t(      CMP      r0,#0x74
        0x00008ed6:    d101        ..      BNE      0x8edc
        0x00008ed8:    2010        .       MOV      r0,#0x10
        0x00008eda:    4304        .C      ORR      r4,r0
        0x00008edc:    1c21        !.      MOV      r1,r4
        0x00008ede:    9800        ..      LDR      r0,[r13,#0]
    $b
        0x00008ee0:    f000fcf8    ....    BL       _sys_open  ; 0x98d4
        0x00008ee4:    1c43        C.      ADD      r3,r0,#1
        0x00008ee6:    d101        ..      BNE      0x8eec
        0x00008ee8:    2000        .       MOV      r0,#0
        0x00008eea:    e7d5        ..      B        0x8e98
        0x00008eec:    2100        .!      MOV      r1,#0
        0x00008eee:    6131        1a      STR      r1,[r6,#0x10]
        0x00008ef0:    6071        q`      STR      r1,[r6,#4]
        0x00008ef2:    2101        .!      MOV      r1,#1
        0x00008ef4:    0249        I.      LSL      r1,r1,#9
        0x00008ef6:    6170        pa      STR      r0,[r6,#0x14]
        0x00008ef8:    61f1        .a      STR      r1,[r6,#0x1c]
        0x00008efa:    60f5        .`      STR      r5,[r6,#0xc]
        0x00008efc:    0720         .      LSL      r0,r4,#28
        0x00008efe:    d504        ..      BPL      0x8f0a
        0x00008f00:    2202        ."      MOV      r2,#2
        0x00008f02:    2100        .!      MOV      r1,#0
        0x00008f04:    1c30        0.      MOV      r0,r6
    $b
        0x00008f06:    f000f9e5    ....    BL       fseek  ; 0x92d4
        0x00008f0a:    1c30        0.      MOV      r0,r6
        0x00008f0c:    e7c4        ..      B        0x8e98
    fopen
        0x00008f0e:    b5c0        ..      PUSH     {r6,r7,r14}
        0x00008f10:    b438        8.      PUSH     {r3-r5}
        0x00008f12:    4c12        .L      LDR      r4,0x8f5c
        0x00008f14:    1c06        ..      MOV      r6,r0
        0x00008f16:    1c0f        ..      MOV      r7,r1
        0x00008f18:    68e0        .h      LDR      r0,[r4,#0xc]
        0x00008f1a:    0780        ..      LSL      r0,r0,#30
        0x00008f1c:    d107        ..      BNE      0x8f2e
        0x00008f1e:    1c22        ".      MOV      r2,r4
        0x00008f20:    1c39        9.      MOV      r1,r7
        0x00008f22:    1c30        0.      MOV      r0,r6
    $b
        0x00008f24:    f7ffffa8    ....    BL       freopen  ; 0x8e78
        0x00008f28:    bcf8        ..      POP      {r3-r7}
        0x00008f2a:    bc08        ..      POP      {r3}
        0x00008f2c:    4718        .G      BX       r3
        0x00008f2e:    6c20         l      LDR      r0,[r4,#0x40]
        0x00008f30:    2800        .(      CMP      r0,#0
        0x00008f32:    d001        ..      BEQ      0x8f38
        0x00008f34:    1c04        ..      MOV      r4,r0
        0x00008f36:    e7ef        ..      B        0x8f18
        0x00008f38:    2044        D       MOV      r0,#0x44
    $b
        0x00008f3a:    f000fb7a    ..z.    BL       malloc  ; 0x9632
        0x00008f3e:    1c05        ..      MOV      r5,r0
        0x00008f40:    2144        D!      MOV      r1,#0x44
        0x00008f42:    6420         d      STR      r0,[r4,#0x40]
    $b
        0x00008f44:    f000fb80    ....    BL       __16__rt_memclr_w  ; 0x9648
        0x00008f48:    1c2a        *.      MOV      r2,r5
        0x00008f4a:    1c39        9.      MOV      r1,r7
        0x00008f4c:    1c30        0.      MOV      r0,r6
    $b
        0x00008f4e:    f7ffff93    ....    BL       freopen  ; 0x8e78
        0x00008f52:    e7e9        ..      B        0x8f28
    $d
        0x00008f54:    00020010    ....    DCD    131088
        0x00008f58:    fffdffef    ....    DCD    4294836207
        0x00008f5c:    00009ed8    ....    DCD    40664
        0x00008f60:    00000202    ....    DCD    514
        0x00008f64:    ffffbfbf    ....    DCD    4294950847
        0x00008f68:    ad800000    ....    DCD    2910846976
        0x00008f6c:    00008002    ....    DCD    32770
    _initio
    $t
        0x00008f70:    b5c0        ..      PUSH     {r6,r7,r14}
        0x00008f72:    b438        8.      PUSH     {r3-r5}
        0x00008f74:    4c40        @L      LDR      r4,0x9078
        0x00008f76:    2144        D!      MOV      r1,#0x44
        0x00008f78:    1c20         .      MOV      r0,r4
    $b
        0x00008f7a:    f000fb65    ..e.    BL       __16__rt_memclr_w  ; 0x9648
        0x00008f7e:    2144        D!      MOV      r1,#0x44
        0x00008f80:    1865        e.      ADD      r5,r4,r1
        0x00008f82:    1c28        (.      MOV      r0,r5
    $b
        0x00008f84:    f000fb60    ..`.    BL       __16__rt_memclr_w  ; 0x9648
        0x00008f88:    2144        D!      MOV      r1,#0x44
        0x00008f8a:    186e        n.      ADD      r6,r5,r1
        0x00008f8c:    1c30        0.      MOV      r0,r6
    $b
        0x00008f8e:    f000fb5b    ..[.    BL       __16__rt_memclr_w  ; 0x9648
        0x00008f92:    6425        %d      STR      r5,[r4,#0x40]
        0x00008f94:    1c22        ".      MOV      r2,r4
        0x00008f96:    4c3a        :L      LDR      r4,0x9080
        0x00008f98:    1c30        0.      MOV      r0,r6
        0x00008f9a:    6428        (d      STR      r0,[r5,#0x40]
        0x00008f9c:    447c        |D      ADD      r4,pc
        0x00008f9e:    1c20         .      MOV      r0,r4
        0x00008fa0:    a136        6.      ADR      r1,0x907c
    $b
        0x00008fa2:    f7ffff69    ..i.    BL       freopen  ; 0x8e78
        0x00008fa6:    2800        .(      CMP      r0,#0
        0x00008fa8:    d103        ..      BNE      0x8fb2
        0x00008faa:    1c21        !.      MOV      r1,r4
        0x00008fac:    2008        .       MOV      r0,#8
    $b
        0x00008fae:    f000fb79    ..y.    BL       __rt_raise  ; 0x96a4
        0x00008fb2:    4a31        1J      LDR      r2,0x9078
        0x00008fb4:    4d34        4M      LDR      r5,0x9088
        0x00008fb6:    a133        3.      ADR      r1,0x9084
        0x00008fb8:    3244        D2      ADD      r2,#0x44
        0x00008fba:    447d        }D      ADD      r5,pc
        0x00008fbc:    1c28        (.      MOV      r0,r5
    $b
        0x00008fbe:    f7ffff5b    ..[.    BL       freopen  ; 0x8e78
        0x00008fc2:    2800        .(      CMP      r0,#0
        0x00008fc4:    d103        ..      BNE      0x8fce
        0x00008fc6:    1c29        ).      MOV      r1,r5
        0x00008fc8:    2008        .       MOV      r0,#8
    $b
        0x00008fca:    f000fb6b    ..k.    BL       __rt_raise  ; 0x96a4
        0x00008fce:    4a2a        *J      LDR      r2,0x9078
        0x00008fd0:    4e2e        .N      LDR      r6,0x908c
        0x00008fd2:    a12c        ,.      ADR      r1,0x9084
        0x00008fd4:    3288        .2      ADD      r2,#0x88
        0x00008fd6:    447e        ~D      ADD      r6,pc
        0x00008fd8:    1c30        0.      MOV      r0,r6
    $b
        0x00008fda:    f7ffff4d    ..M.    BL       freopen  ; 0x8e78
        0x00008fde:    2800        .(      CMP      r0,#0
        0x00008fe0:    d103        ..      BNE      0x8fea
        0x00008fe2:    1c31        1.      MOV      r1,r6
        0x00008fe4:    2008        .       MOV      r0,#8
    $b
        0x00008fe6:    f000fb5d    ..].    BL       __rt_raise  ; 0x96a4
        0x00008fea:    2340        @#      MOV      r3,#0x40
        0x00008fec:    00df        ..      LSL      r7,r3,#3
        0x00008fee:    1c3a        :.      MOV      r2,r7
        0x00008ff0:    2100        .!      MOV      r1,#0
        0x00008ff2:    4821        !H      LDR      r0,0x9078
    $b
        0x00008ff4:    f000fb7e    ..~.    BL       setvbuf  ; 0x96f4
        0x00008ff8:    2800        .(      CMP      r0,#0
        0x00008ffa:    d003        ..      BEQ      0x9004
        0x00008ffc:    1c21        !.      MOV      r1,r4
        0x00008ffe:    2008        .       MOV      r0,#8
    $b
        0x00009000:    f000fb50    ..P.    BL       __rt_raise  ; 0x96a4
        0x00009004:    481c        .H      LDR      r0,0x9078
        0x00009006:    2340        @#      MOV      r3,#0x40
        0x00009008:    1c3a        :.      MOV      r2,r7
        0x0000900a:    2100        .!      MOV      r1,#0
        0x0000900c:    3044        D0      ADD      r0,#0x44
    $b
        0x0000900e:    f000fb71    ..q.    BL       setvbuf  ; 0x96f4
        0x00009012:    2800        .(      CMP      r0,#0
        0x00009014:    d003        ..      BEQ      0x901e
        0x00009016:    1c29        ).      MOV      r1,r5
        0x00009018:    2008        .       MOV      r0,#8
    $b
        0x0000901a:    f000fb43    ..C.    BL       __rt_raise  ; 0x96a4
        0x0000901e:    4816        .H      LDR      r0,0x9078
        0x00009020:    2310        .#      MOV      r3,#0x10
        0x00009022:    1c3a        :.      MOV      r2,r7
        0x00009024:    2100        .!      MOV      r1,#0
        0x00009026:    3088        .0      ADD      r0,#0x88
    $b
        0x00009028:    f000fb64    ..d.    BL       setvbuf  ; 0x96f4
        0x0000902c:    2800        .(      CMP      r0,#0
        0x0000902e:    d003        ..      BEQ      0x9038
        0x00009030:    1c31        1.      MOV      r1,r6
        0x00009032:    2008        .       MOV      r0,#8
    $b
        0x00009034:    f000fb36    ..6.    BL       __rt_raise  ; 0x96a4
        0x00009038:    bcf8        ..      POP      {r3-r7}
        0x0000903a:    bc08        ..      POP      {r3}
        0x0000903c:    4718        .G      BX       r3
    _terminateio
        0x0000903e:    b538        8.      PUSH     {r3-r5,r14}
        0x00009040:    4d0d        .M      LDR      r5,0x9078
        0x00009042:    480d        .H      LDR      r0,0x9078
        0x00009044:    3588        .5      ADD      r5,#0x88
        0x00009046:    6c2c        ,l      LDR      r4,[r5,#0x40]
    $b
        0x00009048:    f7fffee6    ....    BL       fclose  ; 0x8e18
        0x0000904c:    480a        .H      LDR      r0,0x9078
        0x0000904e:    3044        D0      ADD      r0,#0x44
    $b
        0x00009050:    f7fffee2    ....    BL       fclose  ; 0x8e18
        0x00009054:    1c28        (.      MOV      r0,r5
    $b
        0x00009056:    f7fffedf    ....    BL       fclose  ; 0x8e18
        0x0000905a:    2c00        .,      CMP      r4,#0
        0x0000905c:    d008        ..      BEQ      0x9070
        0x0000905e:    1c20         .      MOV      r0,r4
        0x00009060:    6c25        %l      LDR      r5,[r4,#0x40]
    $b
        0x00009062:    f7fffed9    ....    BL       fclose  ; 0x8e18
        0x00009066:    1c20         .      MOV      r0,r4
    $b
        0x00009068:    f000f928    ..(.    BL       free  ; 0x92bc
        0x0000906c:    1c2c        ,.      MOV      r4,r5
        0x0000906e:    d1f6        ..      BNE      0x905e
        0x00009070:    bc38        8.      POP      {r3-r5}
        0x00009072:    bc08        ..      POP      {r3}
        0x00009074:    4718        .G      BX       r3
    $d
        0x00009076:    0000        ..      DCW    0
        0x00009078:    00009ed8    ....    DCD    40664
        0x0000907c:    00000072    r...    DCD    114
        0x00009080:    00000dbc    ....    DCD    3516
        0x00009084:    00000077    w...    DCD    119
        0x00009088:    00000da2    ....    DCD    3490
        0x0000908c:    00000d8a    ....    DCD    3466
    __call_via_r0
    $t
    .text
        0x00009090:    4700        .G      BX       r0
    __call_via_r1
        0x00009092:    4708        .G      BX       r1
    __call_via_r2
        0x00009094:    4710        .G      BX       r2
    __call_via_r3
        0x00009096:    4718        .G      BX       r3
    __call_via_r4
        0x00009098:    4720         G      BX       r4
    __call_via_r5
        0x0000909a:    4728        (G      BX       r5
    __call_via_r6
        0x0000909c:    4730        0G      BX       r6
    __call_via_r7
        0x0000909e:    4738        8G      BX       r7
    exit
    .text
        0x000090a0:    b510        ..      PUSH     {r4,r14}
        0x000090a2:    1c04        ..      MOV      r4,r0
    $b
        0x000090a4:    f000f800    ....    BL       0x90a8
        0x000090a8:    1c20         .      MOV      r0,r4
    $b
        0x000090aa:    f7fffdbb    ....    BL       __rt_exit  ; 0x8c24
        0x000090ae:    bc10        ..      POP      {r4}
        0x000090b0:    bc08        ..      POP      {r3}
        0x000090b2:    4718        .G      BX       r3
    fflush
    .text
        0x000090b4:    b570        p.      PUSH     {r4-r6,r14}
        0x000090b6:    2500        .%      MOV      r5,#0
        0x000090b8:    2800        .(      CMP      r0,#0
        0x000090ba:    d003        ..      BEQ      0x90c4
    $b
        0x000090bc:    f000f812    ....    BL       _do_fflush  ; 0x90e4
        0x000090c0:    1c05        ..      MOV      r5,r0
        0x000090c2:    e00b        ..      B        0x90dc
        0x000090c4:    4c1b        .L      LDR      r4,0x9134
        0x000090c6:    2600        .&      MOV      r6,#0
        0x000090c8:    43f6        .C      MVN      r6,r6
        0x000090ca:    1c20         .      MOV      r0,r4
    $b
        0x000090cc:    f000f80a    ....    BL       _do_fflush  ; 0x90e4
        0x000090d0:    2800        .(      CMP      r0,#0
        0x000090d2:    d000        ..      BEQ      0x90d6
        0x000090d4:    1c35        5.      MOV      r5,r6
        0x000090d6:    6c24        $l      LDR      r4,[r4,#0x40]
        0x000090d8:    2c00        .,      CMP      r4,#0
        0x000090da:    d1f6        ..      BNE      0x90ca
        0x000090dc:    1c28        (.      MOV      r0,r5
        0x000090de:    bc70        p.      POP      {r4-r6}
        0x000090e0:    bc08        ..      POP      {r3}
        0x000090e2:    4718        .G      BX       r3
    _do_fflush
        0x000090e4:    b570        p.      PUSH     {r4-r6,r14}
        0x000090e6:    1c04        ..      MOV      r4,r0
        0x000090e8:    68c0        .h      LDR      r0,[r0,#0xc]
        0x000090ea:    0781        ..      LSL      r1,r0,#30
        0x000090ec:    d01f        ..      BEQ      0x912e
        0x000090ee:    0681        ..      LSL      r1,r0,#26
        0x000090f0:    d501        ..      BPL      0x90f6
        0x000090f2:    6aa6        .j      LDR      r6,[r4,#0x28]
        0x000090f4:    e004        ..      B        0x9100
        0x000090f6:    6861        ah      LDR      r1,[r4,#4]
        0x000090f8:    69a2        .i      LDR      r2,[r4,#0x18]
        0x000090fa:    1889        ..      ADD      r1,r1,r2
        0x000090fc:    6922        "i      LDR      r2,[r4,#0x10]
        0x000090fe:    1a8e        ..      SUB      r6,r1,r2
        0x00009100:    0680        ..      LSL      r0,r0,#26
        0x00009102:    d502        ..      BPL      0x910a
        0x00009104:    1c20         .      MOV      r0,r4
    $b
        0x00009106:    f7fffe67    ..g.    BL       _deferredlazyseek  ; 0x8dd8
        0x0000910a:    2103        .!      MOV      r1,#3
        0x0000910c:    68e0        .h      LDR      r0,[r4,#0xc]
        0x0000910e:    0309        ..      LSL      r1,r1,#12
        0x00009110:    4388        .C      BIC      r0,r1
        0x00009112:    60e0        .`      STR      r0,[r4,#0xc]
        0x00009114:    1c20         .      MOV      r0,r4
    $b
        0x00009116:    f7fffe28    ..(.    BL       _fflush  ; 0x8d6a
        0x0000911a:    1c05        ..      MOV      r5,r0
        0x0000911c:    2200        ."      MOV      r2,#0
        0x0000911e:    1c31        1.      MOV      r1,r6
        0x00009120:    1c20         .      MOV      r0,r4
    $b
        0x00009122:    f000f8d7    ....    BL       fseek  ; 0x92d4
        0x00009126:    1c28        (.      MOV      r0,r5
        0x00009128:    bc70        p.      POP      {r4-r6}
        0x0000912a:    bc08        ..      POP      {r3}
        0x0000912c:    4718        .G      BX       r3
        0x0000912e:    2000        .       MOV      r0,#0
        0x00009130:    e7fa        ..      B        0x9128
    $d
        0x00009132:    0000        ..      DCW    0
        0x00009134:    00009ed8    ....    DCD    40664
    __flsbuf
    $t
    .text
        0x00009138:    b5c0        ..      PUSH     {r6,r7,r14}
        0x0000913a:    b438        8.      PUSH     {r3-r5}
        0x0000913c:    1c06        ..      MOV      r6,r0
        0x0000913e:    68c8        .h      LDR      r0,[r1,#0xc]
        0x00009140:    1c0c        ..      MOV      r4,r1
        0x00009142:    2105        .!      MOV      r1,#5
        0x00009144:    04c9        ..      LSL      r1,r1,#19
        0x00009146:    4388        .C      BIC      r0,r1
        0x00009148:    2101        .!      MOV      r1,#1
        0x0000914a:    0589        ..      LSL      r1,r1,#22
        0x0000914c:    4308        .C      ORR      r0,r1
        0x0000914e:    60e0        .`      STR      r0,[r4,#0xc]
        0x00009150:    0680        ..      LSL      r0,r0,#26
        0x00009152:    d502        ..      BPL      0x915a
        0x00009154:    1c20         .      MOV      r0,r4
    $b
        0x00009156:    f7fffe3f    ..?.    BL       _deferredlazyseek  ; 0x8dd8
        0x0000915a:    2509        .%      MOV      r5,#9
        0x0000915c:    0636        6.      LSL      r6,r6,#24
        0x0000915e:    68a0        .h      LDR      r0,[r4,#8]
        0x00009160:    0e36        6.      LSR      r6,r6,#24
        0x00009162:    036d        m.      LSL      r5,r5,#13
        0x00009164:    2800        .(      CMP      r0,#0
        0x00009166:    da10        ..      BGE      0x918a
        0x00009168:    68e1        .h      LDR      r1,[r4,#0xc]
        0x0000916a:    058a        ..      LSL      r2,r1,#22
        0x0000916c:    d40d        ..      BMI      0x918a
        0x0000916e:    3001        .0      ADD      r0,#1
        0x00009170:    4240        @B      NEG      r0,r0
        0x00009172:    60a0        .`      STR      r0,[r4,#8]
        0x00009174:    4329        )C      ORR      r1,r5
        0x00009176:    1c08        ..      MOV      r0,r1
        0x00009178:    60e0        .`      STR      r0,[r4,#0xc]
        0x0000917a:    6861        ah      LDR      r1,[r4,#4]
        0x0000917c:    1c30        0.      MOV      r0,r6
        0x0000917e:    1c4a        J.      ADD      r2,r1,#1
        0x00009180:    6062        b`      STR      r2,[r4,#4]
        0x00009182:    700e        .p      STRB     r6,[r1,#0]
        0x00009184:    bcf8        ..      POP      {r3-r7}
        0x00009186:    bc08        ..      POP      {r3}
        0x00009188:    4718        .G      BX       r3
        0x0000918a:    68e0        .h      LDR      r0,[r4,#0xc]
        0x0000918c:    4a49        IJ      LDR      r2,0x92b4
        0x0000918e:    2700        .'      MOV      r7,#0
        0x00009190:    1c01        ..      MOV      r1,r0
        0x00009192:    4011        .@      AND      r1,r2
        0x00009194:    43ff        .C      MVN      r7,r7
        0x00009196:    2902        .)      CMP      r1,#2
        0x00009198:    d004        ..      BEQ      0x91a4
        0x0000919a:    1c20         .      MOV      r0,r4
    $b
        0x0000919c:    f7fffd8a    ....    BL       _seterr  ; 0x8cb4
        0x000091a0:    1c38        8.      MOV      r0,r7
        0x000091a2:    e7ef        ..      B        0x9184
        0x000091a4:    4a44        DJ      LDR      r2,0x92b8
        0x000091a6:    1c01        ..      MOV      r1,r0
        0x000091a8:    4011        .@      AND      r1,r2
        0x000091aa:    2201        ."      MOV      r2,#1
        0x000091ac:    03d2        ..      LSL      r2,r2,#15
        0x000091ae:    4291        .B      CMP      r1,r2
        0x000091b0:    d10b        ..      BNE      0x91ca
        0x000091b2:    2202        ."      MOV      r2,#2
        0x000091b4:    2100        .!      MOV      r1,#0
        0x000091b6:    1c20         .      MOV      r0,r4
    $b
        0x000091b8:    f000f88c    ....    BL       fseek  ; 0x92d4
        0x000091bc:    68e0        .h      LDR      r0,[r4,#0xc]
        0x000091be:    0680        ..      LSL      r0,r0,#26
        0x000091c0:    d502        ..      BPL      0x91c8
        0x000091c2:    1c20         .      MOV      r0,r4
    $b
        0x000091c4:    f7fffe08    ....    BL       _deferredlazyseek  ; 0x8dd8
        0x000091c8:    68e0        .h      LDR      r0,[r4,#0xc]
        0x000091ca:    4305        .C      ORR      r5,r0
        0x000091cc:    60e5        .`      STR      r5,[r4,#0xc]
        0x000091ce:    6920         i      LDR      r0,[r4,#0x10]
        0x000091d0:    2800        .(      CMP      r0,#0
        0x000091d2:    d131        1.      BNE      0x9238
        0x000091d4:    6960        `i      LDR      r0,[r4,#0x14]
    $b
        0x000091d6:    f000fba9    ....    BL       _sys_istty  ; 0x992c
        0x000091da:    2800        .(      CMP      r0,#0
        0x000091dc:    d019        ..      BEQ      0x9212
        0x000091de:    68e0        .h      LDR      r0,[r4,#0xc]
        0x000091e0:    0580        ..      LSL      r0,r0,#22
        0x000091e2:    0f80        ..      LSR      r0,r0,#30
        0x000091e4:    d00b        ..      BEQ      0x91fe
        0x000091e6:    69e0        .i      LDR      r0,[r4,#0x1c]
    $b
        0x000091e8:    f000fa23    ..#.    BL       malloc  ; 0x9632
        0x000091ec:    6120         a      STR      r0,[r4,#0x10]
        0x000091ee:    6060        ``      STR      r0,[r4,#4]
        0x000091f0:    2101        .!      MOV      r1,#1
        0x000091f2:    02c9        ..      LSL      r1,r1,#11
        0x000091f4:    68e0        .h      LDR      r0,[r4,#0xc]
        0x000091f6:    430d        .C      ORR      r5,r1
        0x000091f8:    4328        (C      ORR      r0,r5
        0x000091fa:    60e0        .`      STR      r0,[r4,#0xc]
        0x000091fc:    e01c        ..      B        0x9238
        0x000091fe:    1c20         .      MOV      r0,r4
        0x00009200:    3024        $0      ADD      r0,#0x24
        0x00009202:    6120         a      STR      r0,[r4,#0x10]
        0x00009204:    6060        ``      STR      r0,[r4,#4]
        0x00009206:    2001        .       MOV      r0,#1
        0x00009208:    61e0        .a      STR      r0,[r4,#0x1c]
        0x0000920a:    0280        ..      LSL      r0,r0,#10
        0x0000920c:    4305        .C      ORR      r5,r0
        0x0000920e:    60e5        .`      STR      r5,[r4,#0xc]
        0x00009210:    e012        ..      B        0x9238
        0x00009212:    69e0        .i      LDR      r0,[r4,#0x1c]
    $b
        0x00009214:    f000fa0d    ....    BL       malloc  ; 0x9632
        0x00009218:    6120         a      STR      r0,[r4,#0x10]
        0x0000921a:    2101        .!      MOV      r1,#1
        0x0000921c:    02c9        ..      LSL      r1,r1,#11
        0x0000921e:    6060        ``      STR      r0,[r4,#4]
        0x00009220:    68e0        .h      LDR      r0,[r4,#0xc]
        0x00009222:    430d        .C      ORR      r5,r1
        0x00009224:    4328        (C      ORR      r0,r5
        0x00009226:    05a9        ..      LSL      r1,r5,#22
        0x00009228:    0f89        ..      LSR      r1,r1,#30
        0x0000922a:    60e0        .`      STR      r0,[r4,#0xc]
        0x0000922c:    d104        ..      BNE      0x9238
        0x0000922e:    21ff        .!      MOV      r1,#0xff
        0x00009230:    3101        .1      ADD      r1,#1
        0x00009232:    430d        .C      ORR      r5,r1
        0x00009234:    4328        (C      ORR      r0,r5
        0x00009236:    60e0        .`      STR      r0,[r4,#0xc]
        0x00009238:    05e8        ..      LSL      r0,r5,#23
        0x0000923a:    d519        ..      BPL      0x9270
        0x0000923c:    6ae0        .j      LDR      r0,[r4,#0x2c]
        0x0000923e:    6861        ah      LDR      r1,[r4,#4]
        0x00009240:    6925        %i      LDR      r5,[r4,#0x10]
        0x00009242:    4288        .B      CMP      r0,r1
        0x00009244:    d800        ..      BHI      0x9248
        0x00009246:    1c08        ..      MOV      r0,r1
        0x00009248:    1b41        A.      SUB      r1,r0,r5
        0x0000924a:    d007        ..      BEQ      0x925c
        0x0000924c:    1c22        ".      MOV      r2,r4
        0x0000924e:    1c28        (.      MOV      r0,r5
    $b
        0x00009250:    f7fffd3a    ..:.    BL       _writebuf  ; 0x8cc8
        0x00009254:    2800        .(      CMP      r0,#0
        0x00009256:    d001        ..      BEQ      0x925c
        0x00009258:    1c38        8.      MOV      r0,r7
        0x0000925a:    e793        ..      B        0x9184
        0x0000925c:    1c68        h.      ADD      r0,r5,#1
        0x0000925e:    62e0        .b      STR      r0,[r4,#0x2c]
        0x00009260:    6060        ``      STR      r0,[r4,#4]
        0x00009262:    69e0        .i      LDR      r0,[r4,#0x1c]
        0x00009264:    1e41        A.      SUB      r1,r0,#1
        0x00009266:    6320         c      STR      r0,[r4,#0x30]
        0x00009268:    60a1        .`      STR      r1,[r4,#8]
        0x0000926a:    702e        .p      STRB     r6,[r5,#0]
        0x0000926c:    1c30        0.      MOV      r0,r6
        0x0000926e:    e789        ..      B        0x9184
        0x00009270:    6861        ah      LDR      r1,[r4,#4]
        0x00009272:    6920         i      LDR      r0,[r4,#0x10]
        0x00009274:    1c4a        J.      ADD      r2,r1,#1
        0x00009276:    6062        b`      STR      r2,[r4,#4]
        0x00009278:    700e        .p      STRB     r6,[r1,#0]
        0x0000927a:    6ae1        .j      LDR      r1,[r4,#0x2c]
        0x0000927c:    6862        bh      LDR      r2,[r4,#4]
        0x0000927e:    4291        .B      CMP      r1,r2
        0x00009280:    d800        ..      BHI      0x9284
        0x00009282:    1c11        ..      MOV      r1,r2
        0x00009284:    69e2        .i      LDR      r2,[r4,#0x1c]
        0x00009286:    1a09        ..      SUB      r1,r1,r0
        0x00009288:    056b        k.      LSL      r3,r5,#21
        0x0000928a:    6322        "c      STR      r2,[r4,#0x30]
        0x0000928c:    d403        ..      BMI      0x9296
        0x0000928e:    2e0a        ..      CMP      r6,#0xa
        0x00009290:    d001        ..      BEQ      0x9296
        0x00009292:    428a        .B      CMP      r2,r1
        0x00009294:    dc0c        ..      BGT      0x92b0
        0x00009296:    62e0        .b      STR      r0,[r4,#0x2c]
        0x00009298:    6060        ``      STR      r0,[r4,#4]
        0x0000929a:    2200        ."      MOV      r2,#0
        0x0000929c:    60a2        .`      STR      r2,[r4,#8]
        0x0000929e:    1c22        ".      MOV      r2,r4
    $b
        0x000092a0:    f7fffd12    ....    BL       _writebuf  ; 0x8cc8
        0x000092a4:    2800        .(      CMP      r0,#0
        0x000092a6:    d001        ..      BEQ      0x92ac
        0x000092a8:    1c38        8.      MOV      r0,r7
        0x000092aa:    e76b        k.      B        0x9184
        0x000092ac:    1c30        0.      MOV      r0,r6
        0x000092ae:    e769        i.      B        0x9184
        0x000092b0:    1c30        0.      MOV      r0,r6
        0x000092b2:    e767        g.      B        0x9184
    $d
        0x000092b4:    0000108a    ....    DCD    4234
        0x000092b8:    0000a010    ....    DCD    40976
    free
    $t
    .text
        0x000092bc:    b510        ..      PUSH     {r4,r14}
        0x000092be:    1c04        ..      MOV      r4,r0
        0x000092c0:    d005        ..      BEQ      0x92ce
    $b
        0x000092c2:    f000fc0f    ....    BL       __16__user_libspace  ; 0x9ae4
        0x000092c6:    6880        .h      LDR      r0,[r0,#8]
        0x000092c8:    1c21        !.      MOV      r1,r4
    $b
        0x000092ca:    f000fbdd    ....    BL       __Heap_Free  ; 0x9a88
        0x000092ce:    bc10        ..      POP      {r4}
        0x000092d0:    bc08        ..      POP      {r3}
        0x000092d2:    4718        .G      BX       r3
    fseek
    .text
        0x000092d4:    b5e0        ..      PUSH     {r5-r7,r14}
        0x000092d6:    b417        ..      PUSH     {r0-r2,r4}
        0x000092d8:    1c04        ..      MOV      r4,r0
        0x000092da:    6940        @i      LDR      r0,[r0,#0x14]
        0x000092dc:    68e6        .h      LDR      r6,[r4,#0xc]
        0x000092de:    1c0d        ..      MOV      r5,r1
        0x000092e0:    1c07        ..      MOV      r7,r0
        0x000092e2:    07b1        ..      LSL      r1,r6,#30
        0x000092e4:    d003        ..      BEQ      0x92ee
    $b
        0x000092e6:    f000fb21    ..!.    BL       _sys_istty  ; 0x992c
        0x000092ea:    2800        .(      CMP      r0,#0
        0x000092ec:    d004        ..      BEQ      0x92f8
        0x000092ee:    2002        .       MOV      r0,#2
        0x000092f0:    b003        ..      ADD      r13,#0xc
        0x000092f2:    bcf0        ..      POP      {r4-r7}
        0x000092f4:    bc08        ..      POP      {r3}
        0x000092f6:    4718        .G      BX       r3
        0x000092f8:    9802        ..      LDR      r0,[r13,#8]
        0x000092fa:    2800        .(      CMP      r0,#0
        0x000092fc:    d02a        *.      BEQ      0x9354
        0x000092fe:    2801        .(      CMP      r0,#1
        0x00009300:    d010        ..      BEQ      0x9324
        0x00009302:    2802        .(      CMP      r0,#2
        0x00009304:    d12d        -.      BNE      0x9362
        0x00009306:    1c38        8.      MOV      r0,r7
    $b
        0x00009308:    f000fb24    ..$.    BL       _sys_flen  ; 0x9954
        0x0000930c:    68e1        .h      LDR      r1,[r4,#0xc]
        0x0000930e:    2210        ."      MOV      r2,#0x10
        0x00009310:    4311        .C      ORR      r1,r2
        0x00009312:    1c0b        ..      MOV      r3,r1
        0x00009314:    60e3        .`      STR      r3,[r4,#0xc]
        0x00009316:    2800        .(      CMP      r0,#0
        0x00009318:    da09        ..      BGE      0x932e
        0x0000931a:    1c20         .      MOV      r0,r4
    $b
        0x0000931c:    f7fffcca    ....    BL       _seterr  ; 0x8cb4
        0x00009320:    2001        .       MOV      r0,#1
        0x00009322:    e7e5        ..      B        0x92f0
        0x00009324:    1c20         .      MOV      r0,r4
    $b
        0x00009326:    f000fb3f    ..?.    BL       ftell  ; 0x99a8
        0x0000932a:    1945        E.      ADD      r5,r0,r5
        0x0000932c:    e012        ..      B        0x9354
        0x0000932e:    6ae1        .j      LDR      r1,[r4,#0x2c]
        0x00009330:    6862        bh      LDR      r2,[r4,#4]
        0x00009332:    4291        .B      CMP      r1,r2
        0x00009334:    d800        ..      BHI      0x9338
        0x00009336:    1c11        ..      MOV      r1,r2
        0x00009338:    69a2        .i      LDR      r2,[r4,#0x18]
        0x0000933a:    1889        ..      ADD      r1,r1,r2
        0x0000933c:    6922        "i      LDR      r2,[r4,#0x10]
        0x0000933e:    1a89        ..      SUB      r1,r1,r2
        0x00009340:    069a        ..      LSL      r2,r3,#26
        0x00009342:    d503        ..      BPL      0x934c
        0x00009344:    6aa2        .j      LDR      r2,[r4,#0x28]
        0x00009346:    428a        .B      CMP      r2,r1
        0x00009348:    dd00        ..      BLE      0x934c
        0x0000934a:    1c11        ..      MOV      r1,r2
        0x0000934c:    4281        .B      CMP      r1,r0
        0x0000934e:    dd00        ..      BLE      0x9352
        0x00009350:    1c08        ..      MOV      r0,r1
        0x00009352:    182d        -.      ADD      r5,r5,r0
        0x00009354:    2d00        .-      CMP      r5,#0
        0x00009356:    da09        ..      BGE      0x936c
        0x00009358:    1c20         .      MOV      r0,r4
    $b
        0x0000935a:    f7fffcab    ....    BL       _seterr  ; 0x8cb4
        0x0000935e:    2002        .       MOV      r0,#2
        0x00009360:    e7c6        ..      B        0x92f0
        0x00009362:    1c20         .      MOV      r0,r4
    $b
        0x00009364:    f7fffca6    ....    BL       _seterr  ; 0x8cb4
        0x00009368:    2002        .       MOV      r0,#2
        0x0000936a:    e7c1        ..      B        0x92f0
        0x0000936c:    04b0        ..      LSL      r0,r6,#18
        0x0000936e:    d504        ..      BPL      0x937a
        0x00009370:    6860        `h      LDR      r0,[r4,#4]
        0x00009372:    6ae1        .j      LDR      r1,[r4,#0x2c]
        0x00009374:    4281        .B      CMP      r1,r0
        0x00009376:    d200        ..      BCS      0x937a
        0x00009378:    62e0        .b      STR      r0,[r4,#0x2c]
        0x0000937a:    69a0        .i      LDR      r0,[r4,#0x18]
        0x0000937c:    42a8        .B      CMP      r0,r5
        0x0000937e:    dc11        ..      BGT      0x93a4
        0x00009380:    6ae1        .j      LDR      r1,[r4,#0x2c]
        0x00009382:    6862        bh      LDR      r2,[r4,#4]
        0x00009384:    4291        .B      CMP      r1,r2
        0x00009386:    d901        ..      BLS      0x938c
        0x00009388:    1c0b        ..      MOV      r3,r1
        0x0000938a:    e000        ..      B        0x938e
        0x0000938c:    1c13        ..      MOV      r3,r2
        0x0000938e:    469c        .F      MOV      r12,r3
        0x00009390:    181f        ..      ADD      r7,r3,r0
        0x00009392:    6923        #i      LDR      r3,[r4,#0x10]
        0x00009394:    1aff        ..      SUB      r7,r7,r3
        0x00009396:    42af        .B      CMP      r7,r5
        0x00009398:    db04        ..      BLT      0x93a4
        0x0000939a:    6b27        'k      LDR      r7,[r4,#0x30]
        0x0000939c:    4686        .F      MOV      r14,r0
        0x0000939e:    44be        .D      ADD      r14,r7
        0x000093a0:    45ae        .E      CMP      r14,r5
        0x000093a2:    dc06        ..      BGT      0x93b2
        0x000093a4:    2020                MOV      r0,#0x20
        0x000093a6:    4330        0C      ORR      r0,r6
        0x000093a8:    2100        .!      MOV      r1,#0
        0x000093aa:    60a1        .`      STR      r1,[r4,#8]
        0x000093ac:    6021        !`      STR      r1,[r4,#0]
        0x000093ae:    62a5        .b      STR      r5,[r4,#0x28]
        0x000093b0:    e011        ..      B        0x93d6
        0x000093b2:    1a28        (.      SUB      r0,r5,r0
        0x000093b4:    07b5        ..      LSL      r5,r6,#30
        0x000093b6:    d502        ..      BPL      0x93be
        0x000093b8:    1a3d        =.      SUB      r5,r7,r0
        0x000093ba:    426d        mB      NEG      r5,r5
        0x000093bc:    60a5        .`      STR      r5,[r4,#8]
        0x000093be:    07f5        ..      LSL      r5,r6,#31
        0x000093c0:    d504        ..      BPL      0x93cc
        0x000093c2:    4661        aF      MOV      r1,r12
        0x000093c4:    1ac9        ..      SUB      r1,r1,r3
        0x000093c6:    1a09        ..      SUB      r1,r1,r0
        0x000093c8:    4249        IB      NEG      r1,r1
        0x000093ca:    6021        !`      STR      r1,[r4,#0]
        0x000093cc:    1818        ..      ADD      r0,r3,r0
        0x000093ce:    2120         !      MOV      r1,#0x20
        0x000093d0:    438e        .C      BIC      r6,r1
        0x000093d2:    6060        ``      STR      r0,[r4,#4]
        0x000093d4:    1c30        0.      MOV      r0,r6
        0x000093d6:    4902        .I      LDR      r1,0x93e0
        0x000093d8:    4008        .@      AND      r0,r1
        0x000093da:    60e0        .`      STR      r0,[r4,#0xc]
        0x000093dc:    2000        .       MOV      r0,#0
        0x000093de:    e787        ..      B        0x92f0
    $d
        0x000093e0:    ffd7cfbf    ....    DCD    4292333503
    __rt_lib_init
    $t
    .text
        0x000093e4:    b5f0        ..      PUSH     {r4-r7,r14}
        0x000093e6:    1c04        ..      MOV      r4,r0
        0x000093e8:    1c0d        ..      MOV      r5,r1
        0x000093ea:    b083        ..      SUB      r13,#0xc
    $b
        0x000093ec:    f000fc72    ..r.    BL       __16_fp_init  ; 0x9cd4
        0x000093f0:    9400        ..      STR      r4,[r13,#0]
        0x000093f2:    9501        ..      STR      r5,[r13,#4]
        0x000093f4:    2000        .       MOV      r0,#0
    $b
        0x000093f6:    f000faf8    ....    BL       __Heap_DescSize  ; 0x99ea
        0x000093fa:    9002        ..      STR      r0,[r13,#8]
        0x000093fc:    4826        &H      LDR      r0,0x9498
        0x000093fe:    4669        iF      MOV      r1,r13
        0x00009400:    4478        xD      ADD      r0,pc
    $b
        0x00009402:    f000f800    ....    BL       0x9406
        0x00009406:    1c05        ..      MOV      r5,r0
        0x00009408:    1c0e        ..      MOV      r6,r1
        0x0000940a:    a900        ..      ADD      r1,r13,#0
        0x0000940c:    c903        ..      LDMIA    r1!,{r0,r1}
    $b
        0x0000940e:    f000f8e4    ....    BL       _init_alloc  ; 0x95da
    $b
        0x00009412:    f000f8c4    ....    BL       _init_user_alloc  ; 0x959e
    $b
        0x00009416:    f000f800    ....    BL       0x941a
        0x0000941a:    2100        .!      MOV      r1,#0
        0x0000941c:    2000        .       MOV      r0,#0
    $b
        0x0000941e:    f000f800    ....    BL       0x9422
        0x00009422:    1c07        ..      MOV      r7,r0
    $b
        0x00009424:    f000fb5e    ..^.    BL       __16__user_libspace  ; 0x9ae4
        0x00009428:    1c04        ..      MOV      r4,r0
        0x0000942a:    2100        .!      MOV      r1,#0
        0x0000942c:    6207        .b      STR      r7,[r0,#0x20]
        0x0000942e:    2000        .       MOV      r0,#0
    $b
        0x00009430:    f000f800    ....    BL       0x9434
        0x00009434:    1c41        A.      ADD      r1,r0,#1
        0x00009436:    6261        ab      STR      r1,[r4,#0x24]
        0x00009438:    2100        .!      MOV      r1,#0
        0x0000943a:    2000        .       MOV      r0,#0
    $b
        0x0000943c:    f000f800    ....    BL       0x9440
        0x00009440:    2100        .!      MOV      r1,#0
        0x00009442:    62a0        .b      STR      r0,[r4,#0x28]
        0x00009444:    2000        .       MOV      r0,#0
    $b
        0x00009446:    f000f800    ....    BL       0x944a
        0x0000944a:    2100        .!      MOV      r1,#0
        0x0000944c:    62e0        .b      STR      r0,[r4,#0x2c]
        0x0000944e:    2000        .       MOV      r0,#0
    $b
        0x00009450:    f000f800    ....    BL       0x9454
        0x00009454:    6320         c      STR      r0,[r4,#0x30]
    $b
        0x00009456:    f000f800    ....    BL       $b  ; 0x945a
    $b
        0x0000945a:    f000f800    ....    BL       $b  ; 0x945e
    $b
        0x0000945e:    f000f800    ....    BL       $b  ; 0x9462
    $b
        0x00009462:    f000f800    ....    BL       $b  ; 0x9466
    $b
        0x00009466:    f7fffd83    ....    BL       _initio  ; 0x8f70
    $b
        0x0000946a:    f000f800    ....    BL       $b  ; 0x946e
    $b
        0x0000946e:    f000f800    ....    BL       $b  ; 0x9472
    $b
        0x00009472:    f000f800    ....    BL       0x9476
        0x00009476:    1c28        (.      MOV      r0,r5
        0x00009478:    1c31        1.      MOV      r1,r6
        0x0000947a:    b003        ..      ADD      r13,#0xc
        0x0000947c:    bcf0        ..      POP      {r4-r7}
        0x0000947e:    bc08        ..      POP      {r3}
        0x00009480:    4718        .G      BX       r3
    __rt_lib_shutdown
        0x00009482:    b508        ..      PUSH     {r3,r14}
    $b
        0x00009484:    f000f800    ....    BL       $b  ; 0x9488
    $b
        0x00009488:    f7fffdd9    ....    BL       _terminateio  ; 0x903e
    $b
        0x0000948c:    f000f886    ....    BL       _terminate_user_alloc  ; 0x959c
        0x00009490:    b001        ..      ADD      r13,#4
        0x00009492:    bc08        ..      POP      {r3}
        0x00009494:    4718        .G      BX       r3
    $d
        0x00009496:    0000        ..      DCW    0
        0x00009498:    00000094    ....    DCD    148
    __16_ll_cmpge
    $t
    .text
        0x0000949c:    4778        xG      BX       pc
    $d
        0x0000949e:    0000        ..      DCW    0
    _ll_cmpge
    $a
        0x000094a0:    e0500002    ..P.    SUBS     r0,r0,r2
        0x000094a4:    e0d11003    ....    SBCS     r1,r1,r3
        0x000094a8:    e12fff1e    ../.    BX       r14
    __16_ll_cmpu
    $t
    .text
        0x000094ac:    4778        xG      BX       pc
    $d
        0x000094ae:    0000        ..      DCW    0
    _ll_cmpu
    $a
        0x000094b0:    e1510003    ..Q.    CMP      r1,r3
        0x000094b4:    01500002    ..P.    CMPEQ    r0,r2
        0x000094b8:    e12fff1e    ../.    BX       r14
    __16_ll_neg
    $t
    .text
        0x000094bc:    4778        xG      BX       pc
    $d
        0x000094be:    0000        ..      DCW    0
    _ll_neg
    $a
        0x000094c0:    e2700000    ..p.    RSBS     r0,r0,#0
        0x000094c4:    e2e11000    ....    RSC      r1,r1,#0
        0x000094c8:    e12fff1e    ../.    BX       r14
    __16_ll_udiv10
    $t
    .text
        0x000094cc:    4778        xG      BX       pc
    $d
        0x000094ce:    0000        ..      DCW    0
    _ll_udiv10
    $a
        0x000094d0:    e92d4030    0@-.    STMFD    r13!,{r4,r5,r14}
        0x000094d4:    e250200a    . P.    SUBS     r2,r0,#0xa
        0x000094d8:    e2d13000    .0..    SBCS     r3,r1,#0
        0x000094dc:    e1a0e120     ...    MOV      r14,r0,LSR #2
        0x000094e0:    e18eef01    ....    ORR      r14,r14,r1,LSL #30
        0x000094e4:    e050000e    ..P.    SUBS     r0,r0,r14
        0x000094e8:    e0c11121    !...    SBC      r1,r1,r1,LSR #2
        0x000094ec:    e1a0e220     ...    MOV      r14,r0,LSR #4
        0x000094f0:    e18eee01    ....    ORR      r14,r14,r1,LSL #28
        0x000094f4:    e090000e    ....    ADDS     r0,r0,r14
        0x000094f8:    e0a11221    !...    ADC      r1,r1,r1,LSR #4
        0x000094fc:    e1a0e420     ...    MOV      r14,r0,LSR #8
        0x00009500:    e18eec01    ....    ORR      r14,r14,r1,LSL #24
        0x00009504:    e090000e    ....    ADDS     r0,r0,r14
        0x00009508:    e0a11421    !...    ADC      r1,r1,r1,LSR #8
        0x0000950c:    e1a0e820     ...    MOV      r14,r0,LSR #16
        0x00009510:    e18ee801    ....    ORR      r14,r14,r1,LSL #16
        0x00009514:    e090000e    ....    ADDS     r0,r0,r14
        0x00009518:    e0a11821    !...    ADC      r1,r1,r1,LSR #16
        0x0000951c:    e0900001    ....    ADDS     r0,r0,r1
        0x00009520:    e2a11000    ....    ADC      r1,r1,#0
        0x00009524:    e1a001a0    ....    MOV      r0,r0,LSR #3
        0x00009528:    e1800e81    ....    ORR      r0,r0,r1,LSL #29
        0x0000952c:    e1a011a1    ....    MOV      r1,r1,LSR #3
        0x00009530:    e1a04101    .A..    MOV      r4,r1,LSL #2
        0x00009534:    e1844f20     O..    ORR      r4,r4,r0,LSR #30
        0x00009538:    e0905100    .Q..    ADDS     r5,r0,r0,LSL #2
        0x0000953c:    e0a44001    .@..    ADC      r4,r4,r1
        0x00009540:    e0955005    .P..    ADDS     r5,r5,r5
        0x00009544:    e0a44004    .@..    ADC      r4,r4,r4
        0x00009548:    e0522005    . R.    SUBS     r2,r2,r5
        0x0000954c:    e0d33004    .0..    SBCS     r3,r3,r4
        0x00009550:    e3a03000    .0..    MOV      r3,#0
        0x00009554:    4282200a    . .B    ADDMI    r2,r2,#0xa
        0x00009558:    48bd4030    0@.H    LDMMIFD  r13!,{r4,r5,r14}
        0x0000955c:    412fff1e    ../A    BXMI     r14
        0x00009560:    e2900001    ....    ADDS     r0,r0,#1
        0x00009564:    e2a11000    ....    ADC      r1,r1,#0
        0x00009568:    e8bd4030    0@..    LDMFD    r13!,{r4,r5,r14}
        0x0000956c:    e12fff1e    ../.    BX       r14
    __16_ll_ushift_r
    $t
    .text
        0x00009570:    4778        xG      BX       pc
    $d
        0x00009572:    0000        ..      DCW    0
    _ll_ushift_r
    $a
        0x00009574:    e2523020     0R.    SUBS     r3,r2,#0x20
        0x00009578:    5a000004    ...Z    BPL      0x9590
        0x0000957c:    e2623020     0b.    RSB      r3,r2,#0x20
        0x00009580:    e1a00230    0...    MOV      r0,r0,LSR r2
        0x00009584:    e1800311    ....    ORR      r0,r0,r1,LSL r3
        0x00009588:    e1a01231    1...    MOV      r1,r1,LSR r2
        0x0000958c:    e12fff1e    ../.    BX       r14
        0x00009590:    e1a00331    1...    MOV      r0,r1,LSR r3
        0x00009594:    e3a01000    ....    MOV      r1,#0
        0x00009598:    e12fff1e    ../.    BX       r14
    _terminate_user_alloc
    $t
    .text
        0x0000959c:    4770        pG      BX       r14
    _init_user_alloc
        0x0000959e:    4770        pG      BX       r14
    __Heap_Full
        0x000095a0:    b510        ..      PUSH     {r4,r14}
        0x000095a2:    1c04        ..      MOV      r4,r0
        0x000095a4:    1c08        ..      MOV      r0,r1
        0x000095a6:    b082        ..      SUB      r13,#8
        0x000095a8:    a901        ..      ADD      r1,r13,#4
    $b
        0x000095aa:    f000fa8f    ....    BL       __16__heap_extend  ; 0x9acc
        0x000095ae:    2800        .(      CMP      r0,#0
        0x000095b0:    d009        ..      BEQ      0x95c6
        0x000095b2:    1c02        ..      MOV      r2,r0
        0x000095b4:    1c20         .      MOV      r0,r4
        0x000095b6:    9901        ..      LDR      r1,[r13,#4]
    $b
        0x000095b8:    f000fa4e    ..N.    BL       __Heap_ProvideMemory  ; 0x9a58
        0x000095bc:    2001        .       MOV      r0,#1
        0x000095be:    b002        ..      ADD      r13,#8
        0x000095c0:    bc10        ..      POP      {r4}
        0x000095c2:    bc08        ..      POP      {r3}
        0x000095c4:    4718        .G      BX       r3
        0x000095c6:    2000        .       MOV      r0,#0
        0x000095c8:    e7f9        ..      B        0x95be
    __Heap_Broken
        0x000095ca:    b508        ..      PUSH     {r3,r14}
        0x000095cc:    2101        .!      MOV      r1,#1
        0x000095ce:    2009        .       MOV      r0,#9
    $b
        0x000095d0:    f000f868    ..h.    BL       __rt_raise  ; 0x96a4
        0x000095d4:    b001        ..      ADD      r13,#4
        0x000095d6:    bc08        ..      POP      {r3}
        0x000095d8:    4718        .G      BX       r3
    _init_alloc
        0x000095da:    b5c0        ..      PUSH     {r6,r7,r14}
        0x000095dc:    b438        8.      PUSH     {r3-r5}
        0x000095de:    1c05        ..      MOV      r5,r0
        0x000095e0:    1c0c        ..      MOV      r4,r1
        0x000095e2:    2000        .       MOV      r0,#0
    $b
        0x000095e4:    f000fa01    ....    BL       __Heap_DescSize  ; 0x99ea
        0x000095e8:    1c06        ..      MOV      r6,r0
        0x000095ea:    1828        (.      ADD      r0,r5,r0
        0x000095ec:    42a0        .B      CMP      r0,r4
        0x000095ee:    d90e        ..      BLS      $b  ; 0x960e
        0x000095f0:    4669        iF      MOV      r1,r13
        0x000095f2:    1c30        0.      MOV      r0,r6
    $b
        0x000095f4:    f000fa6a    ..j.    BL       __16__heap_extend  ; 0x9acc
        0x000095f8:    1c07        ..      MOV      r7,r0
        0x000095fa:    d103        ..      BNE      0x9604
        0x000095fc:    2100        .!      MOV      r1,#0
        0x000095fe:    2009        .       MOV      r0,#9
    $b
        0x00009600:    f000f850    ..P.    BL       __rt_raise  ; 0x96a4
        0x00009604:    9800        ..      LDR      r0,[r13,#0]
        0x00009606:    42a0        .B      CMP      r0,r4
        0x00009608:    d000        ..      BEQ      0x960c
        0x0000960a:    1c05        ..      MOV      r5,r0
        0x0000960c:    19c4        ..      ADD      r4,r0,r7
    $b
        0x0000960e:    f000fa69    ..i.    BL       __16__user_libspace  ; 0x9ae4
        0x00009612:    1c07        ..      MOV      r7,r0
        0x00009614:    6085        .`      STR      r5,[r0,#8]
        0x00009616:    1c28        (.      MOV      r0,r5
        0x00009618:    19ae        ..      ADD      r6,r5,r6
    $b
        0x0000961a:    f000f9e1    ....    BL       __Heap_Initialize  ; 0x99e0
        0x0000961e:    42b4        .B      CMP      r4,r6
        0x00009620:    d004        ..      BEQ      0x962c
        0x00009622:    1ba2        ..      SUB      r2,r4,r6
        0x00009624:    1c31        1.      MOV      r1,r6
        0x00009626:    68b8        .h      LDR      r0,[r7,#8]
    $b
        0x00009628:    f000fa16    ....    BL       __Heap_ProvideMemory  ; 0x9a58
        0x0000962c:    bcf8        ..      POP      {r3-r7}
        0x0000962e:    bc08        ..      POP      {r3}
        0x00009630:    4718        .G      BX       r3
    malloc
        0x00009632:    b510        ..      PUSH     {r4,r14}
        0x00009634:    1c04        ..      MOV      r4,r0
    $b
        0x00009636:    f000fa55    ..U.    BL       __16__user_libspace  ; 0x9ae4
        0x0000963a:    6880        .h      LDR      r0,[r0,#8]
        0x0000963c:    1c21        !.      MOV      r1,r4
    $b
        0x0000963e:    f000f9d6    ....    BL       __Heap_Alloc  ; 0x99ee
        0x00009642:    bc10        ..      POP      {r4}
        0x00009644:    bc08        ..      POP      {r3}
        0x00009646:    4718        .G      BX       r3
    __16__rt_memclr_w
    .text
        0x00009648:    4778        xG      BX       pc
    $d
        0x0000964a:    0000        ..      DCW    0
    __rt_memclr_w
    $a
        0x0000964c:    e3a02000    . ..    MOV      r2,#0
    _memset_w
        0x00009650:    e92d4000    .@-.    STMFD    r13!,{r14}
        0x00009654:    e1a03002    .0..    MOV      r3,r2
        0x00009658:    e1a0c002    ....    MOV      r12,r2
        0x0000965c:    e1a0e002    ....    MOV      r14,r2
        0x00009660:    e2511020     .Q.    SUBS     r1,r1,#0x20
    _loop
        0x00009664:    28a0500c    .P.(    STMCSIA  r0!,{r2,r3,r12,r14}
        0x00009668:    28a0500c    .P.(    STMCSIA  r0!,{r2,r3,r12,r14}
        0x0000966c:    22511020     .Q"    SUBCSS   r1,r1,#0x20
        0x00009670:    2afffffb    ...*    BCS      _loop  ; 0x9664
        0x00009674:    e1b01e01    ....    MOVS     r1,r1,LSL #28
        0x00009678:    28a0500c    .P.(    STMCSIA  r0!,{r2,r3,r12,r14}
        0x0000967c:    48a0000c    ...H    STMMIIA  r0!,{r2,r3}
        0x00009680:    e8bd4000    .@..    LDMFD    r13!,{r14}
        0x00009684:    e1b01101    ....    MOVS     r1,r1,LSL #2
        0x00009688:    24802004    . .$    STRCS    r2,[r0],#4
        0x0000968c:    012fff1e    ../.    BXEQ     r14
        0x00009690:    44c02001    . .D    STRMIB   r2,[r0],#1
        0x00009694:    44c02001    . .D    STRMIB   r2,[r0],#1
        0x00009698:    e3110440    @...    TST      r1,#0x40000000
        0x0000969c:    14c02001    . ..    STRNEB   r2,[r0],#1
        0x000096a0:    e12fff1e    ../.    BX       r14
    __rt_raise
    $t
    .text
        0x000096a4:    4778        xG      BX       pc
    $d
        0x000096a6:    0000        ..      DCW    0
    __32__rt_raise
    $a
        0x000096a8:    e92d4010    .@-.    STMFD    r13!,{r4,r14}
        0x000096ac:    eb000182    ....    BL       $Ven$AT$L$$__raise  ; 0x9cbc
        0x000096b0:    e3500000    ..P.    CMP      r0,#0
        0x000096b4:    08bd4010    .@..    LDMEQFD  r13!,{r4,r14}
        0x000096b8:    012fff1e    ../.    BXEQ     r14
        0x000096bc:    e8bd4010    .@..    LDMFD    r13!,{r4,r14}
        0x000096c0:    ea00007d    }...    B        _sys_exit  ; 0x98bc
    __16__rt_udiv10
    $t
    .text
        0x000096c4:    4778        xG      BX       pc
    $d
        0x000096c6:    0000        ..      DCW    0
    __rt_udiv10
    $a
        0x000096c8:    e240100a    ..@.    SUB      r1,r0,#0xa
        0x000096cc:    e0400120     .@.    SUB      r0,r0,r0,LSR #2
        0x000096d0:    e0800220     ...    ADD      r0,r0,r0,LSR #4
        0x000096d4:    e0800420     ...    ADD      r0,r0,r0,LSR #8
        0x000096d8:    e0800820     ...    ADD      r0,r0,r0,LSR #16
        0x000096dc:    e1a001a0    ....    MOV      r0,r0,LSR #3
        0x000096e0:    e0802100    .!..    ADD      r2,r0,r0,LSL #2
        0x000096e4:    e0511082    ..Q.    SUBS     r1,r1,r2,LSL #1
        0x000096e8:    52800001    ...R    ADDPL    r0,r0,#1
        0x000096ec:    4281100a    ...B    ADDMI    r1,r1,#0xa
        0x000096f0:    e12fff1e    ../.    BX       r14
    setvbuf
    $t
    .text
        0x000096f4:    b470        p.      PUSH     {r4-r6}
        0x000096f6:    68c5        .h      LDR      r5,[r0,#0xc]
        0x000096f8:    1c1c        ..      MOV      r4,r3
        0x000096fa:    07ab        ..      LSL      r3,r5,#30
        0x000096fc:    d001        ..      BEQ      0x9702
        0x000096fe:    026b        k.      LSL      r3,r5,#9
        0x00009700:    d502        ..      BPL      0x9708
        0x00009702:    2001        .       MOV      r0,#1
        0x00009704:    bc70        p.      POP      {r4-r6}
        0x00009706:    4770        pG      BX       r14
        0x00009708:    23ff        .#      MOV      r3,#0xff
        0x0000970a:    3301        .3      ADD      r3,#1
        0x0000970c:    429a        .B      CMP      r2,r3
        0x0000970e:    d00b        ..      BEQ      0x9728
        0x00009710:    005b        [.      LSL      r3,r3,#1
        0x00009712:    429a        .B      CMP      r2,r3
        0x00009714:    d008        ..      BEQ      0x9728
        0x00009716:    005b        [.      LSL      r3,r3,#1
        0x00009718:    429a        .B      CMP      r2,r3
        0x0000971a:    d001        ..      BEQ      0x9720
        0x0000971c:    2001        .       MOV      r0,#1
        0x0000971e:    e7f1        ..      B        0x9704
        0x00009720:    1c01        ..      MOV      r1,r0
        0x00009722:    3124        $1      ADD      r1,#0x24
        0x00009724:    2401        .$      MOV      r4,#1
        0x00009726:    e005        ..      B        0x9734
        0x00009728:    4e0c        .N      LDR      r6,0x975c
        0x0000972a:    1e63        c.      SUB      r3,r4,#1
        0x0000972c:    42b3        .B      CMP      r3,r6
        0x0000972e:    d301        ..      BCC      0x9734
        0x00009730:    2001        .       MOV      r0,#1
        0x00009732:    e7e7        ..      B        0x9704
        0x00009734:    6101        .a      STR      r1,[r0,#0x10]
        0x00009736:    6041        A`      STR      r1,[r0,#4]
        0x00009738:    210f        .!      MOV      r1,#0xf
        0x0000973a:    0209        ..      LSL      r1,r1,#8
        0x0000973c:    438d        .C      BIC      r5,r1
        0x0000973e:    4315        .C      ORR      r5,r2
        0x00009740:    1c29        ).      MOV      r1,r5
        0x00009742:    61c4        .a      STR      r4,[r0,#0x1c]
        0x00009744:    60c1        .`      STR      r1,[r0,#0xc]
        0x00009746:    2000        .       MOV      r0,#0
        0x00009748:    e7dc        ..      B        0x9704
    setbuf
        0x0000974a:    22ff        ."      MOV      r2,#0xff
        0x0000974c:    3201        .2      ADD      r2,#1
        0x0000974e:    2900        .)      CMP      r1,#0
        0x00009750:    d100        ..      BNE      0x9754
        0x00009752:    0092        ..      LSL      r2,r2,#2
        0x00009754:    2301        .#      MOV      r3,#1
        0x00009756:    025b        [.      LSL      r3,r3,#9
        0x00009758:    e7cc        ..      B        setvbuf  ; 0x96f4
    $d
        0x0000975a:    0000        ..      DCW    0
        0x0000975c:    00ffffff    ....    DCD    16777215
    __16__rt_stackheap_init
    $t
    .text
        0x00009760:    4778        xG      BX       pc
    $d
        0x00009762:    0000        ..      DCW    0
    __rt_stackheap_init
    $a
        0x00009764:    e1a0500e    .P..    MOV      r5,r14
        0x00009768:    eb0000de    ....    BL       __user_libspace  ; 0x9ae8
        0x0000976c:    e1a0e005    ....    MOV      r14,r5
        0x00009770:    e1a04000    .@..    MOV      r4,r0
        0x00009774:    e1a0100d    ....    MOV      r1,r13
        0x00009778:    e1a0300a    .0..    MOV      r3,r10
        0x0000977c:    e3c00007    ....    BIC      r0,r0,#7
        0x00009780:    e280d060    `...    ADD      r13,r0,#0x60
        0x00009784:    e92d4010    .@-.    STMFD    r13!,{r4,r14}
        0x00009788:    eb0000db    ....    BL       __user_initial_stackheap  ; 0x9afc
        0x0000978c:    e8bd4010    .@..    LDMFD    r13!,{r4,r14}
        0x00009790:    e3c1d007    ....    BIC      r13,r1,#7
        0x00009794:    e3a06000    .`..    MOV      r6,#0
        0x00009798:    e3a07000    .p..    MOV      r7,#0
        0x0000979c:    e3a08000    ....    MOV      r8,#0
        0x000097a0:    e3a0b000    ....    MOV      r11,#0
        0x000097a4:    e1a0c004    ....    MOV      r12,r4
        0x000097a8:    e8ac09c0    ....    STMIA    r12!,{r6-r8,r11}
        0x000097ac:    e8ac09c0    ....    STMIA    r12!,{r6-r8,r11}
        0x000097b0:    e8ac09c0    ....    STMIA    r12!,{r6-r8,r11}
        0x000097b4:    e8ac09c0    ....    STMIA    r12!,{r6-r8,r11}
        0x000097b8:    e92d4013    .@-.    STMFD    r13!,{r0,r1,r4,r14}
        0x000097bc:    e3a00000    ....    MOV      r0,#0
        0x000097c0:    e3a01000    ....    MOV      r1,#0
        0x000097c4:    ebffffff    ....    BL       0x97c8
        0x000097c8:    e2811040    @...    ADD      r1,r1,#0x40
        0x000097cc:    e0802001    . ..    ADD      r2,r0,r1
        0x000097d0:    e2822f44    D/..    ADD      r2,r2,#0x110
        0x000097d4:    e584201c    . ..    STR      r2,[r4,#0x1c]
        0x000097d8:    e5841018    ....    STR      r1,[r4,#0x18]
        0x000097dc:    e3a00001    ....    MOV      r0,#1
        0x000097e0:    e5840010    ....    STR      r0,[r4,#0x10]
        0x000097e4:    e8bd4013    .@..    LDMFD    r13!,{r0,r1,r4,r14}
        0x000097e8:    e5840014    ....    STR      r0,[r4,#0x14]
        0x000097ec:    e1a01000    ....    MOV      r1,r0
        0x000097f0:    e1a0f00e    ....    MOV      pc,r14
    __16__rt_heap_extend
    $t
        0x000097f4:    4778        xG      BX       pc
    $d
        0x000097f6:    0000        ..      DCW    0
    __rt_heap_extend
    $a
        0x000097f8:    e92d4010    .@-.    STMFD    r13!,{r4,r14}
        0x000097fc:    e92d0003    ..-.    STMFD    r13!,{r0,r1}
        0x00009800:    eb0000b8    ....    BL       __user_libspace  ; 0x9ae8
        0x00009804:    e1a04000    .@..    MOV      r4,r0
        0x00009808:    e8bd0003    ....    LDMFD    r13!,{r0,r1}
        0x0000980c:    e594301c    .0..    LDR      r3,[r4,#0x1c]
        0x00009810:    e04d3003    .0M.    SUB      r3,r13,r3
        0x00009814:    e5942014    . ..    LDR      r2,[r4,#0x14]
        0x00009818:    e5812000    . ..    STR      r2,[r1,#0]
        0x0000981c:    e082e000    ....    ADD      r14,r2,r0
        0x00009820:    e15e0003    ..^.    CMP      r14,r3
        0x00009824:    8a00000b    ....    BHI      _heap_overflow  ; 0x9858
        0x00009828:    e093300e    .0..    ADDS     r3,r3,r14
        0x0000982c:    e1a03063    c0..    MOV      r3,r3,RRX
        0x00009830:    e3c33007    .0..    BIC      r3,r3,#7
        0x00009834:    e28e1d40    @...    ADD      r1,r14,#0x1000
        0x00009838:    e2811007    ....    ADD      r1,r1,#7
        0x0000983c:    e3c11007    ....    BIC      r1,r1,#7
        0x00009840:    e1510003    ..Q.    CMP      r1,r3
        0x00009844:    81a01003    ....    MOVHI    r1,r3
        0x00009848:    e0410002    ..A.    SUB      r0,r1,r2
        0x0000984c:    e5841014    ....    STR      r1,[r4,#0x14]
        0x00009850:    e8bd4010    .@..    LDMFD    r13!,{r4,r14}
        0x00009854:    e12fff1e    ../.    BX       r14
    _heap_overflow
        0x00009858:    e1a02000    . ..    MOV      r2,r0
        0x0000985c:    e3a00000    ....    MOV      r0,#0
        0x00009860:    ebffffff    ....    BL       0x9864
        0x00009864:    e8bd4010    .@..    LDMFD    r13!,{r4,r14}
        0x00009868:    e12fff1e    ../.    BX       r14
    strlen
    $t
    .text
        0x0000986c:    b430        0.      PUSH     {r4,r5}
        0x0000986e:    1c44        D.      ADD      r4,r0,#1
        0x00009870:    0781        ..      LSL      r1,r0,#30
        0x00009872:    d008        ..      BEQ      0x9886
        0x00009874:    7801        .x      LDRB     r1,[r0,#0]
        0x00009876:    3001        .0      ADD      r0,#1
        0x00009878:    2900        .)      CMP      r1,#0
        0x0000987a:    d102        ..      BNE      0x9882
        0x0000987c:    1b00        ..      SUB      r0,r0,r4
        0x0000987e:    bc30        0.      POP      {r4,r5}
        0x00009880:    4770        pG      BX       r14
        0x00009882:    0781        ..      LSL      r1,r0,#30
        0x00009884:    d1f6        ..      BNE      0x9874
        0x00009886:    4a0b        .J      LDR      r2,0x98b4
        0x00009888:    01d5        ..      LSL      r5,r2,#7
        0x0000988a:    c802        ..      LDMIA    r0!,{r1}
        0x0000988c:    1a8b        ..      SUB      r3,r1,r2
        0x0000988e:    438b        .C      BIC      r3,r1
        0x00009890:    402b        +@      AND      r3,r5
        0x00009892:    d0fa        ..      BEQ      0x988a
        0x00009894:    1b00        ..      SUB      r0,r0,r4
        0x00009896:    060a        ..      LSL      r2,r1,#24
        0x00009898:    d101        ..      BNE      0x989e
        0x0000989a:    3803        .8      SUB      r0,#3
        0x0000989c:    e7ef        ..      B        0x987e
        0x0000989e:    040a        ..      LSL      r2,r1,#16
        0x000098a0:    0e12        ..      LSR      r2,r2,#24
        0x000098a2:    d101        ..      BNE      0x98a8
        0x000098a4:    3802        .8      SUB      r0,#2
        0x000098a6:    e7ea        ..      B        0x987e
        0x000098a8:    0209        ..      LSL      r1,r1,#8
        0x000098aa:    0e09        ..      LSR      r1,r1,#24
        0x000098ac:    d1e7        ..      BNE      0x987e
        0x000098ae:    3801        .8      SUB      r0,#1
        0x000098b0:    e7e5        ..      B        0x987e
    $d
        0x000098b2:    0000        ..      DCW    0
        0x000098b4:    01010101    ....    DCD    16843009
    __16_sys_exit
    $t
    .text
        0x000098b8:    4778        xG      BX       pc
    $d
        0x000098ba:    0000        ..      DCW    0
    _sys_exit
    $a
        0x000098bc:    e3a00018    ....    MOV      r0,#0x18
        0x000098c0:    e59f1008    ....    LDR      r1,0x98d0
        0x000098c4:    ef123456    V4..    SWI      0x123456
        0x000098c8:    e12fff1e    ../.    BX       r14
    $d
    $f
        0x000098cc:    00000279    y...    DCD    633
        0x000098d0:    00020026    &...    DCD    131110
    _sys_open
    $t
    .text
        0x000098d4:    b500        ..      PUSH     {r14}
        0x000098d6:    b083        ..      SUB      r13,#0xc
        0x000098d8:    9000        ..      STR      r0,[r13,#0]
        0x000098da:    9101        ..      STR      r1,[r13,#4]
    $b
        0x000098dc:    f7ffffc6    ....    BL       strlen  ; 0x986c
        0x000098e0:    9002        ..      STR      r0,[r13,#8]
        0x000098e2:    2001        .       MOV      r0,#1
        0x000098e4:    4669        iF      MOV      r1,r13
        0x000098e6:    dfab        ..      SWI      0xab
        0x000098e8:    b003        ..      ADD      r13,#0xc
        0x000098ea:    bc08        ..      POP      {r3}
        0x000098ec:    4718        .G      BX       r3
    _sys_close
        0x000098ee:    b508        ..      PUSH     {r3,r14}
        0x000098f0:    9000        ..      STR      r0,[r13,#0]
        0x000098f2:    2002        .       MOV      r0,#2
        0x000098f4:    4669        iF      MOV      r1,r13
        0x000098f6:    dfab        ..      SWI      0xab
        0x000098f8:    b001        ..      ADD      r13,#4
        0x000098fa:    bc08        ..      POP      {r3}
        0x000098fc:    4718        .G      BX       r3
    _sys_write
        0x000098fe:    b500        ..      PUSH     {r14}
        0x00009900:    b085        ..      SUB      r13,#0x14
        0x00009902:    9001        ..      STR      r0,[r13,#4]
        0x00009904:    9102        ..      STR      r1,[r13,#8]
        0x00009906:    a901        ..      ADD      r1,r13,#4
        0x00009908:    2005        .       MOV      r0,#5
        0x0000990a:    9203        ..      STR      r2,[r13,#0xc]
        0x0000990c:    dfab        ..      SWI      0xab
        0x0000990e:    b005        ..      ADD      r13,#0x14
        0x00009910:    bc08        ..      POP      {r3}
        0x00009912:    4718        .G      BX       r3
    _sys_read
        0x00009914:    b500        ..      PUSH     {r14}
        0x00009916:    b085        ..      SUB      r13,#0x14
        0x00009918:    9001        ..      STR      r0,[r13,#4]
        0x0000991a:    9102        ..      STR      r1,[r13,#8]
        0x0000991c:    a901        ..      ADD      r1,r13,#4
        0x0000991e:    2006        .       MOV      r0,#6
        0x00009920:    9203        ..      STR      r2,[r13,#0xc]
        0x00009922:    9304        ..      STR      r3,[r13,#0x10]
        0x00009924:    dfab        ..      SWI      0xab
        0x00009926:    b005        ..      ADD      r13,#0x14
        0x00009928:    bc08        ..      POP      {r3}
        0x0000992a:    4718        .G      BX       r3
    _sys_istty
        0x0000992c:    b508        ..      PUSH     {r3,r14}
        0x0000992e:    9000        ..      STR      r0,[r13,#0]
        0x00009930:    2009        .       MOV      r0,#9
        0x00009932:    4669        iF      MOV      r1,r13
        0x00009934:    dfab        ..      SWI      0xab
        0x00009936:    b001        ..      ADD      r13,#4
        0x00009938:    bc08        ..      POP      {r3}
        0x0000993a:    4718        .G      BX       r3
    _sys_seek
        0x0000993c:    b500        ..      PUSH     {r14}
        0x0000993e:    b083        ..      SUB      r13,#0xc
        0x00009940:    9001        ..      STR      r0,[r13,#4]
        0x00009942:    9102        ..      STR      r1,[r13,#8]
        0x00009944:    a901        ..      ADD      r1,r13,#4
        0x00009946:    200a        .       MOV      r0,#0xa
        0x00009948:    dfab        ..      SWI      0xab
        0x0000994a:    b003        ..      ADD      r13,#0xc
        0x0000994c:    bc08        ..      POP      {r3}
        0x0000994e:    4718        .G      BX       r3
    _sys_ensure
        0x00009950:    2000        .       MOV      r0,#0
        0x00009952:    4770        pG      BX       r14
    _sys_flen
        0x00009954:    b508        ..      PUSH     {r3,r14}
        0x00009956:    9000        ..      STR      r0,[r13,#0]
        0x00009958:    200c        .       MOV      r0,#0xc
        0x0000995a:    4669        iF      MOV      r1,r13
        0x0000995c:    dfab        ..      SWI      0xab
        0x0000995e:    b001        ..      ADD      r13,#4
        0x00009960:    bc08        ..      POP      {r3}
        0x00009962:    4718        .G      BX       r3
    __raise
    .text
        0x00009964:    b570        p.      PUSH     {r4-r6,r14}
        0x00009966:    4e0e        .N      LDR      r6,0x99a0
        0x00009968:    1c0d        ..      MOV      r5,r1
        0x0000996a:    1c01        ..      MOV      r1,r0
        0x0000996c:    1c04        ..      MOV      r4,r0
        0x0000996e:    447e        ~D      ADD      r6,pc
        0x00009970:    1c30        0.      MOV      r0,r6
    $b
        0x00009972:    f000f800    ....    BL       0x9976
        0x00009976:    1c02        ..      MOV      r2,r0
        0x00009978:    42b0        .B      CMP      r0,r6
        0x0000997a:    d106        ..      BNE      0x998a
        0x0000997c:    1c29        ).      MOV      r1,r5
        0x0000997e:    1c20         .      MOV      r0,r4
    $b
        0x00009980:    f000f8e4    ....    BL       __default_signal_handler  ; 0x9b4c
        0x00009984:    bc70        p.      POP      {r4-r6}
        0x00009986:    bc08        ..      POP      {r3}
        0x00009988:    4718        .G      BX       r3
        0x0000998a:    4806        .H      LDR      r0,0x99a4
        0x0000998c:    4478        xD      ADD      r0,pc
        0x0000998e:    4282        .B      CMP      r2,r0
        0x00009990:    d003        ..      BEQ      0x999a
        0x00009992:    1c29        ).      MOV      r1,r5
        0x00009994:    1c20         .      MOV      r0,r4
    $b
        0x00009996:    f7fffb7d    ..}.    BL       __call_via_r2  ; 0x9094
        0x0000999a:    2000        .       MOV      r0,#0
        0x0000999c:    e7f2        ..      B        0x9984
    $d
        0x0000999e:    0000        ..      DCW    0
        0x000099a0:    ffff668d    .f..    DCD    4294928013
        0x000099a4:    ffff666d    mf..    DCD    4294927981
    ftell
    $t
    .text
        0x000099a8:    b508        ..      PUSH     {r3,r14}
        0x000099aa:    68c1        .h      LDR      r1,[r0,#0xc]
        0x000099ac:    078a        ..      LSL      r2,r1,#30
        0x000099ae:    d107        ..      BNE      0x99c0
    $b
        0x000099b0:    f000f958    ..X.    BL       __16__rt_errno_addr  ; 0x9c64
        0x000099b4:    2101        .!      MOV      r1,#1
        0x000099b6:    6001        .`      STR      r1,[r0,#0]
        0x000099b8:    4248        HB      NEG      r0,r1
        0x000099ba:    b001        ..      ADD      r13,#4
        0x000099bc:    bc08        ..      POP      {r3}
        0x000099be:    4718        .G      BX       r3
        0x000099c0:    068a        ..      LSL      r2,r1,#26
        0x000099c2:    d501        ..      BPL      0x99c8
        0x000099c4:    6a80        .j      LDR      r0,[r0,#0x28]
        0x000099c6:    e004        ..      B        0x99d2
        0x000099c8:    6842        Bh      LDR      r2,[r0,#4]
        0x000099ca:    6983        .i      LDR      r3,[r0,#0x18]
        0x000099cc:    6900        .i      LDR      r0,[r0,#0x10]
        0x000099ce:    18d2        ..      ADD      r2,r2,r3
        0x000099d0:    1a10        ..      SUB      r0,r2,r0
        0x000099d2:    0309        ..      LSL      r1,r1,#12
        0x000099d4:    d5f1        ..      BPL      0x99ba
        0x000099d6:    2800        .(      CMP      r0,#0
        0x000099d8:    ddef        ..      BLE      0x99ba
        0x000099da:    3801        .8      SUB      r0,#1
        0x000099dc:    e7ed        ..      B        0x99ba
    $d
        0x000099de:    0000        ..      DCW    0
    __Heap_Initialize
    $t
    .text
        0x000099e0:    2100        .!      MOV      r1,#0
        0x000099e2:    6001        .`      STR      r1,[r0,#0]
        0x000099e4:    6041        A`      STR      r1,[r0,#4]
        0x000099e6:    6080        .`      STR      r0,[r0,#8]
        0x000099e8:    4770        pG      BX       r14
    __Heap_DescSize
        0x000099ea:    200c        .       MOV      r0,#0xc
        0x000099ec:    4770        pG      BX       r14
    __Heap_Alloc
        0x000099ee:    b538        8.      PUSH     {r3-r5,r14}
        0x000099f0:    1c05        ..      MOV      r5,r0
        0x000099f2:    1d08        ..      ADD      r0,r1,#4
        0x000099f4:    2808        .(      CMP      r0,#8
        0x000099f6:    d200        ..      BCS      0x99fa
        0x000099f8:    2008        .       MOV      r0,#8
        0x000099fa:    3007        .0      ADD      r0,#7
        0x000099fc:    08c4        ..      LSR      r4,r0,#3
        0x000099fe:    00e4        ..      LSL      r4,r4,#3
        0x00009a00:    3901        .9      SUB      r1,#1
        0x00009a02:    428c        .B      CMP      r4,r1
        0x00009a04:    d803        ..      BHI      0x9a0e
        0x00009a06:    2000        .       MOV      r0,#0
        0x00009a08:    bc38        8.      POP      {r3-r5}
        0x00009a0a:    bc08        ..      POP      {r3}
        0x00009a0c:    4718        .G      BX       r3
        0x00009a0e:    6868        hh      LDR      r0,[r5,#4]
        0x00009a10:    1c29        ).      MOV      r1,r5
        0x00009a12:    2800        .(      CMP      r0,#0
        0x00009a14:    d018        ..      BEQ      0x9a48
        0x00009a16:    6802        .h      LDR      r2,[r0,#0]
        0x00009a18:    42a2        .B      CMP      r2,r4
        0x00009a1a:    d311        ..      BCC      0x9a40
        0x00009a1c:    1c23        #.      MOV      r3,r4
        0x00009a1e:    6802        .h      LDR      r2,[r0,#0]
        0x00009a20:    3308        .3      ADD      r3,#8
        0x00009a22:    429a        .B      CMP      r2,r3
        0x00009a24:    d308        ..      BCC      0x9a38
        0x00009a26:    6843        Ch      LDR      r3,[r0,#4]
        0x00009a28:    1902        ..      ADD      r2,r0,r4
        0x00009a2a:    6053        S`      STR      r3,[r2,#4]
        0x00009a2c:    6803        .h      LDR      r3,[r0,#0]
        0x00009a2e:    1b1b        ..      SUB      r3,r3,r4
        0x00009a30:    6013        .`      STR      r3,[r2,#0]
        0x00009a32:    604a        J`      STR      r2,[r1,#4]
        0x00009a34:    6004        .`      STR      r4,[r0,#0]
        0x00009a36:    e001        ..      B        0x9a3c
        0x00009a38:    6842        Bh      LDR      r2,[r0,#4]
        0x00009a3a:    604a        J`      STR      r2,[r1,#4]
        0x00009a3c:    3004        .0      ADD      r0,#4
        0x00009a3e:    e7e3        ..      B        0x9a08
        0x00009a40:    1c01        ..      MOV      r1,r0
        0x00009a42:    6840        @h      LDR      r0,[r0,#4]
        0x00009a44:    2800        .(      CMP      r0,#0
        0x00009a46:    d1e6        ..      BNE      0x9a16
        0x00009a48:    1c21        !.      MOV      r1,r4
        0x00009a4a:    1c28        (.      MOV      r0,r5
    $b
        0x00009a4c:    f7fffda8    ....    BL       __Heap_Full  ; 0x95a0
        0x00009a50:    2800        .(      CMP      r0,#0
        0x00009a52:    d1dc        ..      BNE      0x9a0e
        0x00009a54:    e7d8        ..      B        0x9a08
    $d
        0x00009a56:    0000        ..      DCW    0
    __Heap_ProvideMemory
    $t
    .text
        0x00009a58:    b538        8.      PUSH     {r3-r5,r14}
        0x00009a5a:    6843        Ch      LDR      r3,[r0,#4]
        0x00009a5c:    1c04        ..      MOV      r4,r0
        0x00009a5e:    e001        ..      B        0x9a64
        0x00009a60:    1c1c        ..      MOV      r4,r3
        0x00009a62:    685b        [h      LDR      r3,[r3,#4]
        0x00009a64:    2b00        .+      CMP      r3,#0
        0x00009a66:    d001        ..      BEQ      0x9a6c
        0x00009a68:    428b        .B      CMP      r3,r1
        0x00009a6a:    d3f9        ..      BCC      0x9a60
        0x00009a6c:    6823        #h      LDR      r3,[r4,#0]
        0x00009a6e:    191b        ..      ADD      r3,r3,r4
        0x00009a70:    428b        .B      CMP      r3,r1
        0x00009a72:    d003        ..      BEQ      0x9a7c
        0x00009a74:    3103        .1      ADD      r1,#3
        0x00009a76:    08c9        ..      LSR      r1,r1,#3
        0x00009a78:    00c9        ..      LSL      r1,r1,#3
        0x00009a7a:    3104        .1      ADD      r1,#4
        0x00009a7c:    c104        ..      STMIA    r1!,{r2}
    $b
        0x00009a7e:    f000f803    ....    BL       __Heap_Free  ; 0x9a88
        0x00009a82:    bc38        8.      POP      {r3-r5}
        0x00009a84:    bc08        ..      POP      {r3}
        0x00009a86:    4718        .G      BX       r3
    __Heap_Free
    .text
        0x00009a88:    3904        .9      SUB      r1,#4
        0x00009a8a:    1c02        ..      MOV      r2,r0
        0x00009a8c:    b410        ..      PUSH     {r4}
        0x00009a8e:    6840        @h      LDR      r0,[r0,#4]
        0x00009a90:    e001        ..      B        0x9a96
        0x00009a92:    1c02        ..      MOV      r2,r0
        0x00009a94:    6840        @h      LDR      r0,[r0,#4]
        0x00009a96:    2800        .(      CMP      r0,#0
        0x00009a98:    d001        ..      BEQ      0x9a9e
        0x00009a9a:    4288        .B      CMP      r0,r1
        0x00009a9c:    d3f9        ..      BCC      0x9a92
        0x00009a9e:    6813        .h      LDR      r3,[r2,#0]
        0x00009aa0:    189c        ..      ADD      r4,r3,r2
        0x00009aa2:    428c        .B      CMP      r4,r1
        0x00009aa4:    d104        ..      BNE      0x9ab0
        0x00009aa6:    6809        .h      LDR      r1,[r1,#0]
        0x00009aa8:    1859        Y.      ADD      r1,r3,r1
        0x00009aaa:    6011        .`      STR      r1,[r2,#0]
        0x00009aac:    1c11        ..      MOV      r1,r2
        0x00009aae:    e000        ..      B        0x9ab2
        0x00009ab0:    6051        Q`      STR      r1,[r2,#4]
        0x00009ab2:    680a        .h      LDR      r2,[r1,#0]
        0x00009ab4:    1853        S.      ADD      r3,r2,r1
        0x00009ab6:    4283        .B      CMP      r3,r0
        0x00009ab8:    d106        ..      BNE      0x9ac8
        0x00009aba:    6843        Ch      LDR      r3,[r0,#4]
        0x00009abc:    604b        K`      STR      r3,[r1,#4]
        0x00009abe:    6800        .h      LDR      r0,[r0,#0]
        0x00009ac0:    1810        ..      ADD      r0,r2,r0
        0x00009ac2:    6008        .`      STR      r0,[r1,#0]
        0x00009ac4:    bc10        ..      POP      {r4}
        0x00009ac6:    4770        pG      BX       r14
        0x00009ac8:    6048        H`      STR      r0,[r1,#4]
        0x00009aca:    e7fb        ..      B        0x9ac4
    __16__heap_extend
    .text
        0x00009acc:    4778        xG      BX       pc
    $d
        0x00009ace:    0000        ..      DCW    0
    __heap_extend
    $a
        0x00009ad0:    e92d4010    .@-.    STMFD    r13!,{r4,r14}
        0x00009ad4:    ebffff47    G...    BL       __rt_heap_extend  ; 0x97f8
        0x00009ad8:    e8bd4010    .@..    LDMFD    r13!,{r4,r14}
        0x00009adc:    e12fff1e    ../.    BX       r14
    __heap_guard
    $t
    .text
        0x00009ae0:    4770        pG      BX       r14
    __I_use_heap
        0x00009ae2:    4770        pG      BX       r14
    __16__user_libspace
    .text
        0x00009ae4:    4778        xG      BX       pc
    $d
        0x00009ae6:    0000        ..      DCW    0
    __user_libspace
    $a
        0x00009ae8:    e59f0000    ....    LDR      r0,0x9af0
        0x00009aec:    e12fff1e    ../.    BX       r14
    $d
        0x00009af0:    00009fa4    ....    DCD    40868
    _no_fp_display
    $t
    .text
        0x00009af4:    2000        .       MOV      r0,#0
        0x00009af6:    4770        pG      BX       r14
    __16__user_initial_stackheap
    .text
        0x00009af8:    4778        xG      BX       pc
    $d
        0x00009afa:    0000        ..      DCW    0
    __user_initial_stackheap
    $a
        0x00009afc:    e92d4000    .@-.    STMFD    r13!,{r14}
        0x00009b00:    e24dd014    ..M.    SUB      r13,r13,#0x14
        0x00009b04:    e1a0100d    ....    MOV      r1,r13
        0x00009b08:    e28d2004    . ..    ADD      r2,r13,#4
        0x00009b0c:    e5812000    . ..    STR      r2,[r1,#0]
        0x00009b10:    e3a00016    ....    MOV      r0,#0x16
        0x00009b14:    ef123456    V4..    SWI      0x123456
        0x00009b18:    e59d0004    ....    LDR      r0,[r13,#4]
        0x00009b1c:    e59d100c    ....    LDR      r1,[r13,#0xc]
        0x00009b20:    e59d2008    . ..    LDR      r2,[r13,#8]
        0x00009b24:    e59d3010    .0..    LDR      r3,[r13,#0x10]
        0x00009b28:    e3500000    ..P.    CMP      r0,#0
        0x00009b2c:    059f000c    ....    LDREQ    r0,0x9b40
        0x00009b30:    e28dd014    ....    ADD      r13,r13,#0x14
        0x00009b34:    e8bd4000    .@..    LDMFD    r13!,{r14}
        0x00009b38:    e12fff1e    ../.    BX       r14
    $d
    $f
        0x00009b3c:    00000009    ....    DCD    9
    _RW_Limit
        0x00009b40:    0000a004    ....    DCD    40964
    __I_use_semihosting_swi
    __semihosting_swi_guard
    $t
    .text
        0x00009b44:    4778        xG      BX       pc
    $d
        0x00009b46:    0000        ..      DCW    0
    __32__I_use_semihosting_swi
    $a
        0x00009b48:    e12fff1e    ../.    BX       r14
    __default_signal_handler
    $t
    .text
        0x00009b4c:    b538        8.      PUSH     {r3-r5,r14}
        0x00009b4e:    1e42        B.      SUB      r2,r0,#1
        0x00009b50:    2a0d        .*      CMP      r2,#0xd
        0x00009b52:    a424        $.      ADR      r4,0x9be4
        0x00009b54:    d226        &.      BCS      0x9ba4
        0x00009b56:    2217        ."      MOV      r2,#0x17
        0x00009b58:    4b23        #K      LDR      r3,0x9be8
        0x00009b5a:    4342        BC      MUL      r2,r0
        0x00009b5c:    447b        {D      ADD      r3,pc
        0x00009b5e:    18d5        ..      ADD      r5,r2,r3
        0x00009b60:    3d17        .=      SUB      r5,#0x17
        0x00009b62:    2802        .(      CMP      r0,#2
        0x00009b64:    d114        ..      BNE      0x9b90
        0x00009b66:    0148        H.      LSL      r0,r1,#5
        0x00009b68:    d501        ..      BPL      0x9b6e
        0x00009b6a:    a420         .      ADR      r4,0x9bec
        0x00009b6c:    e01b        ..      B        0x9ba6
        0x00009b6e:    4824        $H      LDR      r0,0x9c00
        0x00009b70:    4008        .@      AND      r0,r1
        0x00009b72:    d001        ..      BEQ      0x9b78
        0x00009b74:    a423        #.      ADR      r4,0x9c04
        0x00009b76:    e016        ..      B        0x9ba6
        0x00009b78:    00c8        ..      LSL      r0,r1,#3
        0x00009b7a:    d501        ..      BPL      0x9b80
        0x00009b7c:    a425        %.      ADR      r4,0x9c14
        0x00009b7e:    e012        ..      B        0x9ba6
        0x00009b80:    0088        ..      LSL      r0,r1,#2
        0x00009b82:    d501        ..      BPL      0x9b88
        0x00009b84:    a426        &.      ADR      r4,0x9c20
        0x00009b86:    e00e        ..      B        0x9ba6
        0x00009b88:    0048        H.      LSL      r0,r1,#1
        0x00009b8a:    d50c        ..      BPL      0x9ba6
        0x00009b8c:    a427        '.      ADR      r4,0x9c2c
        0x00009b8e:    e00a        ..      B        0x9ba6
        0x00009b90:    2808        .(      CMP      r0,#8
        0x00009b92:    d101        ..      BNE      0x9b98
        0x00009b94:    1c0c        ..      MOV      r4,r1
        0x00009b96:    e006        ..      B        0x9ba6
        0x00009b98:    2809        .(      CMP      r0,#9
        0x00009b9a:    d104        ..      BNE      0x9ba6
        0x00009b9c:    2901        .)      CMP      r1,#1
        0x00009b9e:    d102        ..      BNE      0x9ba6
        0x00009ba0:    a526        &.      ADR      r5,0x9c3c
        0x00009ba2:    e000        ..      B        0x9ba6
        0x00009ba4:    a52b        +.      ADR      r5,0x9c54
        0x00009ba6:    200a        .       MOV      r0,#0xa
    $b
        0x00009ba8:    f000f872    ..r.    BL       _ttywrch  ; 0x9c90
        0x00009bac:    7828        (x      LDRB     r0,[r5,#0]
        0x00009bae:    2800        .(      CMP      r0,#0
        0x00009bb0:    d006        ..      BEQ      0x9bc0
        0x00009bb2:    7828        (x      LDRB     r0,[r5,#0]
        0x00009bb4:    3501        .5      ADD      r5,#1
    $b
        0x00009bb6:    f000f86b    ..k.    BL       _ttywrch  ; 0x9c90
        0x00009bba:    7828        (x      LDRB     r0,[r5,#0]
        0x00009bbc:    2800        .(      CMP      r0,#0
        0x00009bbe:    d1f8        ..      BNE      0x9bb2
        0x00009bc0:    7820         x      LDRB     r0,[r4,#0]
        0x00009bc2:    2800        .(      CMP      r0,#0
        0x00009bc4:    d006        ..      BEQ      0x9bd4
        0x00009bc6:    7820         x      LDRB     r0,[r4,#0]
        0x00009bc8:    3401        .4      ADD      r4,#1
    $b
        0x00009bca:    f000f861    ..a.    BL       _ttywrch  ; 0x9c90
        0x00009bce:    7820         x      LDRB     r0,[r4,#0]
        0x00009bd0:    2800        .(      CMP      r0,#0
        0x00009bd2:    d1f8        ..      BNE      0x9bc6
        0x00009bd4:    200a        .       MOV      r0,#0xa
    $b
        0x00009bd6:    f000f85b    ..[.    BL       _ttywrch  ; 0x9c90
        0x00009bda:    bc38        8.      POP      {r3-r5}
        0x00009bdc:    bc08        ..      POP      {r3}
        0x00009bde:    2001        .       MOV      r0,#1
        0x00009be0:    4718        .G      BX       r3
    $d
        0x00009be2:    0000        ..      DCW    0
        0x00009be4:    00000000    ....    DCD    0
        0x00009be8:    00000209    ....    DCD    521
        0x00009bec:    61766e49    Inva    DCD    1635151433
        0x00009bf0:    2064696c    lid     DCD    543451500
        0x00009bf4:    7265704f    Oper    DCD    1919250511
        0x00009bf8:    6f697461    atio    DCD    1869182049
        0x00009bfc:    0000006e    n...    DCD    110
        0x00009c00:    08000002    ....    DCD    134217730
        0x00009c04:    69766944    Divi    DCD    1769367876
        0x00009c08:    42206564    de B    DCD    1109419364
        0x00009c0c:    655a2079    y Ze    DCD    1700405369
        0x00009c10:    00006f72    ro..    DCD    28530
        0x00009c14:    7265764f    Over    DCD    1919252047
        0x00009c18:    776f6c66    flow    DCD    2003790950
        0x00009c1c:    00000000    ....    DCD    0
        0x00009c20:    65646e55    Unde    DCD    1701080661
        0x00009c24:    6f6c6672    rflo    DCD    1869375090
        0x00009c28:    00000077    w...    DCD    119
        0x00009c2c:    78656e49    Inex    DCD    2019913289
        0x00009c30:    20746361    act     DCD    544498529
        0x00009c34:    75736552    Resu    DCD    1970496850
        0x00009c38:    0000746c    lt..    DCD    29804
        0x00009c3c:    6548203a    : He    DCD    1699225658
        0x00009c40:    6d207061    ap m    DCD    1830842465
        0x00009c44:    726f6d65    emor    DCD    1919905125
        0x00009c48:    6f632079    y co    DCD    1868767353
        0x00009c4c:    70757272    rrup    DCD    1886745202
        0x00009c50:    00646574    ted.    DCD    6579572
        0x00009c54:    6e6b6e55    Unkn    DCD    1852534357
        0x00009c58:    206e776f    own     DCD    544110447
        0x00009c5c:    6e676973    sign    DCD    1852270963
        0x00009c60:    00006c61    al..    DCD    27745
    __16__rt_errno_addr
    $t
    .text
        0x00009c64:    4778        xG      BX       pc
    $d
        0x00009c66:    0000        ..      DCW    0
    __rt_errno_addr
    $a
        0x00009c68:    e92d4010    .@-.    STMFD    r13!,{r4,r14}
        0x00009c6c:    ebffff9d    ....    BL       __user_libspace  ; 0x9ae8
        0x00009c70:    e8bd4010    .@..    LDMFD    r13!,{r4,r14}
        0x00009c74:    e12fff1e    ../.    BX       r14
    __16__rt_fp_status_addr
    $t
    .text
        0x00009c78:    4778        xG      BX       pc
    $d
        0x00009c7a:    0000        ..      DCW    0
    __rt_fp_status_addr
    $a
        0x00009c7c:    e92d4010    .@-.    STMFD    r13!,{r4,r14}
        0x00009c80:    ebffff98    ....    BL       __user_libspace  ; 0x9ae8
        0x00009c84:    e2800004    ....    ADD      r0,r0,#4
        0x00009c88:    e8bd4010    .@..    LDMFD    r13!,{r4,r14}
        0x00009c8c:    e12fff1e    ../.    BX       r14
    _ttywrch
    $t
    .text
        0x00009c90:    b508        ..      PUSH     {r3,r14}
        0x00009c92:    ab00        ..      ADD      r3,r13,#0
        0x00009c94:    7018        .p      STRB     r0,[r3,#0]
        0x00009c96:    2003        .       MOV      r0,#3
        0x00009c98:    4669        iF      MOV      r1,r13
        0x00009c9a:    dfab        ..      SWI      0xab
        0x00009c9c:    b001        ..      ADD      r13,#4
        0x00009c9e:    bc08        ..      POP      {r3}
        0x00009ca0:    4718        .G      BX       r3
    $d
        0x00009ca2:    0000        ..      DCW    0
    $Ven$AT$L$$__rt_lib_init
    $a
        0x00009ca4:    e59fc000    ....    LDR      r12,0x9cac
        0x00009ca8:    e12fff1c    ../.    BX       r12
    $d
    $f
        0x00009cac:    000093e5    ....    DCD    37861
    $Ven$AT$L$$__rt_lib_shutdown
    $a
        0x00009cb0:    e59fc000    ....    LDR      r12,0x9cb8
        0x00009cb4:    e12fff1c    ../.    BX       r12
    $d
    $f
        0x00009cb8:    00009483    ....    DCD    38019
    $Ven$AT$L$$__raise
    $a
        0x00009cbc:    e59fc000    ....    LDR      r12,0x9cc4
        0x00009cc0:    e12fff1c    ../.    BX       r12
    $d
    $f
        0x00009cc4:    00009965    e...    DCD    39269
    $Ven$AT$L$$_no_fp_display
    $a
        0x00009cc8:    e59fc000    ....    LDR      r12,0x9cd0
        0x00009ccc:    e12fff1c    ../.    BX       r12
    $d
    $f
        0x00009cd0:    00009af5    ....    DCD    39669
    __16_fp_init
    $t
    x$fpl$fpinit
        0x00009cd4:    4778        xG      BX       pc
    $d
        0x00009cd6:    0000        ..      DCW    0
    _fp_init
    $a
        0x00009cd8:    e92d4010    .@-.    STMFD    r13!,{r4,r14}
        0x00009cdc:    ebffffe6    ....    BL       __rt_fp_status_addr  ; 0x9c7c
        0x00009ce0:    e3a01000    ....    MOV      r1,#0
        0x00009ce4:    e5801000    ....    STR      r1,[r0,#0]
    __fplib_config_pureend_doubles
        0x00009ce8:    e8bd4010    .@..    LDMFD    r13!,{r4,r14}
        0x00009cec:    e12fff1e    ../.    BX       r14
    __16_fp_display_gate
    $t
    x$fpl$printf2
        0x00009cf0:    4778        xG      BX       pc
    $d
        0x00009cf2:    0000        ..      DCW    0
    _fp_display_gate
    $a
        0x00009cf4:    eafffff3    ....    B        $Ven$AT$L$$_no_fp_display  ; 0x9cc8
    .constdata$1
    $d
    .constdata
        0x00009cf8:    61646164    dada    DCD    1633968484
        0x00009cfc:    61646164    dada    DCD    1633968484
        0x00009d00:    00000000    ....    DCD    0
        0x00009d04:    00000000    ....    DCD    0
        0x00009d08:    00000000    ....    DCD    0
        0x00009d0c:    00000000    ....    DCD    0
        0x00009d10:    00000000    ....    DCD    0
        0x00009d14:    00000000    ....    DCD    0
        0x00009d18:    00000000    ....    DCD    0
        0x00009d1c:    00000000    ....    DCD    0
        0x00009d20:    00000000    ....    DCD    0
        0x00009d24:    00000000    ....    DCD    0
        0x00009d28:    00000000    ....    DCD    0
        0x00009d2c:    00000000    ....    DCD    0
        0x00009d30:    00000000    ....    DCD    0
        0x00009d34:    00000000    ....    DCD    0
        0x00009d38:    00000000    ....    DCD    0
        0x00009d3c:    00000000    ....    DCD    0
        0x00009d40:    00000000    ....    DCD    0
        0x00009d44:    00000000    ....    DCD    0
        0x00009d48:    00000000    ....    DCD    0
        0x00009d4c:    00000000    ....    DCD    0
        0x00009d50:    00000000    ....    DCD    0
        0x00009d54:    00000000    ....    DCD    0
        0x00009d58:    00000000    ....    DCD    0
    __stdin_name
    .constdata$16
    .constdata
        0x00009d5c:    0074743a    :tt.    DCD    7631930
    __stdout_name
    .constdata$21
    .constdata
        0x00009d60:    0074743a    :tt.    DCD    7631930
    __stderr_name
    .constdata$26
    .constdata
        0x00009d64:    0074743a    :tt.    DCD    7631930
    __select_optimised_fwrite
    .constdata$16
    .constdata
        0x00009d68:    00          .       DCB    0
    .constdata$1
    messages@__default_signal_handler_0
    .constdata
        0x00009d69:    41          A       DCB    65
        0x00009d6a:    6e62        bn      DCW    28258
        0x00009d6c:    616d726f    orma    DCD    1634562671
        0x00009d70:    6574206c    l te    DCD    1702109292
        0x00009d74:    6e696d72    rmin    DCD    1852403058
        0x00009d78:    6f697461    atio    DCD    1869182049
        0x00009d7c:    0000006e    n...    DCD    110
        0x00009d80:    74697241    Arit    DCD    1953067585
        0x00009d84:    74656d68    hmet    DCD    1952804200
        0x00009d88:    65206369    ic e    DCD    1696621417
        0x00009d8c:    70656378    xcep    DCD    1885692792
        0x00009d90:    6e6f6974    tion    DCD    1852795252
        0x00009d94:    4900203a    : .I    DCD    1224745018
        0x00009d98:    67656c6c    lleg    DCD    1734700140
        0x00009d9c:    69206c61    al i    DCD    1763732577
        0x00009da0:    7274736e    nstr    DCD    1920234350
        0x00009da4:    69746375    ucti    DCD    1769235317
        0x00009da8:    00006e6f    on..    DCD    28271
        0x00009dac:    6e490000    ..In    DCD    1850277888
        0x00009db0:    72726574    terr    DCD    1920099700
        0x00009db4:    20747075    upt     DCD    544501877
        0x00009db8:    65636572    rece    DCD    1701012850
        0x00009dbc:    64657669    ived    DCD    1684371049
        0x00009dc0:    00000000    ....    DCD    0
        0x00009dc4:    6c6c4900    .Ill    DCD    1819035904
        0x00009dc8:    6c616765    egal    DCD    1818322789
        0x00009dcc:    64646120     add    DCD    1684300064
        0x00009dd0:    73736572    ress    DCD    1936942450
        0x00009dd4:    00000000    ....    DCD    0
        0x00009dd8:    00000000    ....    DCD    0
        0x00009ddc:    6d726554    Term    DCD    1836213588
        0x00009de0:    74616e69    inat    DCD    1952542313
        0x00009de4:    206e6f69    ion     DCD    544108393
        0x00009de8:    75716572    requ    DCD    1970365810
        0x00009dec:    00747365    est.    DCD    7631717
        0x00009df0:    53000000    ...S    DCD    1392508928
        0x00009df4:    6b636174    tack    DCD    1801675124
        0x00009df8:    65766f20     ove    DCD    1702260512
        0x00009dfc:    6f6c6672    rflo    DCD    1869375090
        0x00009e00:    00000077    w...    DCD    119
        0x00009e04:    00000000    ....    DCD    0
        0x00009e08:    65520000    ..Re    DCD    1699872768
        0x00009e0c:    65726964    dire    DCD    1701996900
        0x00009e10:    203a7463    ct:     DCD    540701795
        0x00009e14:    276e6163    can'    DCD    661545315
        0x00009e18:    706f2074    t op    DCD    1886330996
        0x00009e1c:    203a6e65    en:     DCD    540700261
        0x00009e20:    74754f00    .Out    DCD    1953844992
        0x00009e24:    20666f20     of     DCD    543584032
        0x00009e28:    70616568    heap    DCD    1885431144
        0x00009e2c:    6d656d20     mem    DCD    1835363616
        0x00009e30:    0079726f    ory.    DCD    7959151
        0x00009e34:    00000000    ....    DCD    0
        0x00009e38:    72657355    User    DCD    1919251285
        0x00009e3c:    6665642d    -def    DCD    1717920813
        0x00009e40:    64656e69    ined    DCD    1684369001
        0x00009e44:    67697320     sig    DCD    1734964000
        0x00009e48:    206c616e    nal     DCD    543973742
        0x00009e4c:    55000031    1..U    DCD    1426063409
        0x00009e50:    2d726573    ser-    DCD    762471795
        0x00009e54:    69666564    defi    DCD    1768318308
        0x00009e58:    2064656e    ned     DCD    543450478
        0x00009e5c:    6e676973    sign    DCD    1852270963
        0x00009e60:    32206c61    al 2    DCD    840985697
        0x00009e64:    75500000    ..Pu    DCD    1968177152
        0x00009e68:    76206572    re v    DCD    1981834610
        0x00009e6c:    75747269    irtu    DCD    1970565737
        0x00009e70:    66206c61    al f    DCD    1713400929
        0x00009e74:    6163206e    n ca    DCD    1633886318
        0x00009e78:    64656c6c    lled    DCD    1684368492
        0x00009e7c:    2b2b4300    .C++    DCD    724255488
        0x00009e80:    62696c20     lib    DCD    1651076128
        0x00009e84:    79726172    rary    DCD    2037539186
        0x00009e88:    63786520     exc    DCD    1668834592
        0x00009e8c:    69747065    epti    DCD    1769238629
        0x00009e90:    00006e6f    on..    DCD    28271
    Region$$Table$$Base
        0x00009e94:    00000000    ....    DCD    0
        0x00009e98:    00000000    ....    DCD    0
        0x00009e9c:    00000000    ....    DCD    0
        0x00009ea0:    00000000    ....    DCD    0
        0x00009ea4:    00000000    ....    DCD    0
        0x00009ea8:    00000000    ....    DCD    0
        0x00009eac:    00000000    ....    DCD    0
        0x00009eb0:    00000000    ....    DCD    0
        0x00009eb4:    00000000    ....    DCD    0
    Region$$Table$$Limit
    ZISection$$Table$$Base
        0x00009eb8:    00009ed0    ....    DCD    40656
        0x00009ebc:    00000000    ....    DCD    0
        0x00009ec0:    00009ed8    ....    DCD    40664
        0x00009ec4:    00000000    ....    DCD    0
        0x00009ec8:    00009ed8    ....    DCD    40664
        0x00009ecc:    0000012c    ,...    DCD    300
    ZISection$$Table$$Limit

** Section #2 'ER_RW' (SHT_PROGBITS) [SHF_ALLOC + SHF_WRITE]
    Size   : 8 bytes (alignment 4)
    Address: 0x00009ed0


** Section #3 'ER_ZI' (SHT_NOBITS) [SHF_ALLOC + SHF_WRITE]
    Size   : 300 bytes (alignment 4)
    Address: 0x00009ed8


** Section #4 '.debug_frame' (SHT_PROGBITS)
    Size   : 5052 bytes


** Section #5 '.symtab' (SHT_SYMTAB)
    Size   : 9184 bytes (alignment 4)
    String table '.strtab'
    Last local symbol no. 430


** Section #6 '.strtab' (SHT_STRTAB)
    Size   : 2872 bytes


** Section #7 '.note' (SHT_NOTE)
    Size   : 28 bytes (alignment 4)


** Section #8 '.comment' (SHT_PROGBITS)
    Size   : 6700 bytes


** Section #9 '.shstrtab' (SHT_STRTAB)
    Size   : 84 bytes


